LX51 LINKER/LOCATER V4.66.97.0                                                          02/13/2020  01:59:39  PAGE 1


LX51 LINKER/LOCATER V4.66.97.0, INVOKED BY:
Z:\HOME\VYLDRAM\SIMPLICITYSTUDIO_V4\DEVELOPER\TOOLCHAINS\KEIL_8051\9.60\BIN\LX51.EXE ./ADC0.OBJ, ./EXTI.OBJ, ./GPIO.OBJ,
>>  ./Oscillator.OBJ, ./UART.OBJ, ./main.OBJ TO C8051F340_UART.OMF.CRBUILD REMOVEUNUSED PRINT (.\C8051F340_UART.m51) PAG
>> EWIDTH (120) PAGELENGTH (65) CLASSES (ECODE (C:0X0-C:0XFBFE), HCONST (C:0X0-C:0XFBFE), XDATA (X:0X0-X:0XFFF), HDATA (
>> X:0X0-X:0XFFF))


CPU MODE:     8051 MODE
MEMORY MODEL: SMALL WITH FLOATING POINT ARITHMETIC


INPUT MODULES INCLUDED:
  ./ADC0.OBJ (ADC0)
         COMMENT TYPE 0: C51 V9.60.0.0
  ./EXTI.OBJ (EXTI)
         COMMENT TYPE 0: C51 V9.60.0.0
  ./GPIO.OBJ (GPIO)
         COMMENT TYPE 0: C51 V9.60.0.0
  ./Oscillator.OBJ (OSCILLATOR)
         COMMENT TYPE 0: C51 V9.60.0.0
  ./UART.OBJ (UART)
         COMMENT TYPE 0: C51 V9.60.0.0
  ./main.OBJ (MAIN)
         COMMENT TYPE 0: C51 V9.60.0.0
  /HOME/VYLDRAM/SIMPLICITYSTUDIO_V4/DEVELOPER/TOOLCHAINS/KEIL_8051/9.60/LIB\C51FPS.LIB (?C?FPADD)
         COMMENT TYPE 1: A51 / ASM51 Assembler
  /HOME/VYLDRAM/SIMPLICITYSTUDIO_V4/DEVELOPER/TOOLCHAINS/KEIL_8051/9.60/LIB\C51FPS.LIB (?C?FPDIV)
         COMMENT TYPE 1: A51 / ASM51 Assembler
  /HOME/VYLDRAM/SIMPLICITYSTUDIO_V4/DEVELOPER/TOOLCHAINS/KEIL_8051/9.60/LIB\C51FPS.LIB (?C?FPCMP)
         COMMENT TYPE 1: A51 / ASM51 Assembler
  /HOME/VYLDRAM/SIMPLICITYSTUDIO_V4/DEVELOPER/TOOLCHAINS/KEIL_8051/9.60/LIB\C51FPS.LIB (?C?FCAST)
         COMMENT TYPE 1: A51 / ASM51 Assembler
  /HOME/VYLDRAM/SIMPLICITYSTUDIO_V4/DEVELOPER/TOOLCHAINS/KEIL_8051/9.60/LIB\C51FPS.LIB (?C?CASTF)
         COMMENT TYPE 1: A51 / ASM51 Assembler
  /HOME/VYLDRAM/SIMPLICITYSTUDIO_V4/DEVELOPER/TOOLCHAINS/KEIL_8051/9.60/LIB\C51FPS.LIB (?C?FPGETOPN)
         COMMENT TYPE 1: A51 / ASM51 Assembler
  /HOME/VYLDRAM/SIMPLICITYSTUDIO_V4/DEVELOPER/TOOLCHAINS/KEIL_8051/9.60/LIB\C51S.LIB (?C_STARTUP)
         COMMENT TYPE 1: A51 / ASM51 Assembler
  /HOME/VYLDRAM/SIMPLICITYSTUDIO_V4/DEVELOPER/TOOLCHAINS/KEIL_8051/9.60/LIB\C51S.LIB (?C?UIDIV)
         COMMENT TYPE 1: A51 / ASM51 Assembler
  /HOME/VYLDRAM/SIMPLICITYSTUDIO_V4/DEVELOPER/TOOLCHAINS/KEIL_8051/9.60/LIB\C51S.LIB (?C?LNEG)
         COMMENT TYPE 1: A51 / ASM51 Assembler
  /HOME/VYLDRAM/SIMPLICITYSTUDIO_V4/DEVELOPER/TOOLCHAINS/KEIL_8051/9.60/LIB\C51S.LIB (?C?SLCMP)
         COMMENT TYPE 1: A51 / ASM51 Assembler
  /HOME/VYLDRAM/SIMPLICITYSTUDIO_V4/DEVELOPER/TOOLCHAINS/KEIL_8051/9.60/LIB\C51S.LIB (?C?ULCMP)
         COMMENT TYPE 1: A51 / ASM51 Assembler
  /HOME/VYLDRAM/SIMPLICITYSTUDIO_V4/DEVELOPER/TOOLCHAINS/KEIL_8051/9.60/LIB\C51S.LIB (?C_INIT)
         COMMENT TYPE 1: A51 / ASM51 Assembler


ACTIVE MEMORY CLASSES OF MODULE:  C8051F340_UART.OMF.CRBUILD (ADC0)

BASE        START       END         USED      MEMORY CLASS
==========================================================
C:000000H   C:000000H   C:00FBFEH             ECODE
C:000000H   C:000000H   C:00FBFEH             HCONST
X:000000H   X:000000H   X:000FFFH             XDATA
X:000000H   X:000000H   X:000FFFH             HDATA
C:000000H   C:000000H   C:00FFFFH   00095EH   CODE
I:000000H   I:000000H   I:00007FH   000055H   DATA
X:000000H   X:000000H   X:0000FFH   000008H   PDATA
I:000000H   I:000000H   I:0000FFH   000001H   IDATA

LX51 LINKER/LOCATER V4.66.97.0                                                        02/13/2020  01:59:39  PAGE 2



MEMORY MAP OF MODULE:  C8051F340_UART.OMF.CRBUILD (ADC0)


START     STOP      LENGTH    ALIGN  RELOC    MEMORY CLASS   SEGMENT NAME
=========================================================================

* * * * * * * * * * *   D A T A   M E M O R Y   * * * * * * * * * * * * *
000000H   000007H   000008H   ---    AT..     DATA           "REG BANK 0"
000008H   000016H   00000FH   BYTE   UNIT     DATA           ?DT?UART
000017H   00001FH   000009H   ---    ---      **GAP**
000020H   000021H   000002H   BYTE   BITADDR  DATA           ?BA?GPIO
000022H   000044H   000023H   BYTE   UNIT     DATA           _DATA_GROUP_
000045H   00005DH   000019H   BYTE   UNIT     DATA           ?DT?MAIN
00005EH   00005EH   000001H   BYTE   UNIT     IDATA          ?STACK

* * * * * * * * * * *   C O D E   M E M O R Y   * * * * * * * * * * * * *
000000H   000002H   000003H   ---    OFFS..   CODE           ?CO??C_STARTUP?0
000003H   000005H   000003H   BYTE   OFFS..   CODE           ?EXTI?00003
000006H   000009H   000004H   BYTE   UNIT     CODE           ?PR?_OSCILLATOR_VHIGHFRECINIT?OSCILLATOR
00000AH   00000AH   000001H   ---    ---      **GAP**
00000BH   00000DH   000003H   BYTE   OFFS..   CODE           ?MAIN?0000B
00000EH   000012H   000005H   ---    ---      **GAP**
000013H   000015H   000003H   BYTE   OFFS..   CODE           ?EXTI?00013
000016H   00036FH   00035AH   BYTE   UNIT     CODE           ?C?LIB_CODE
000370H   0005ABH   00023CH   BYTE   UNIT     CODE           ?PR?_TIMER1_VINIT?UART
0005ACH   0006FAH   00014FH   BYTE   UNIT     CODE           ?PR?MAIN?MAIN
0006FBH   000786H   00008CH   BYTE   UNIT     CODE           ?C_C51STARTUP
000787H   0007D5H   00004FH   BYTE   UNIT     CODE           ?C_INITSEG
0007D6H   000823H   00004EH   BYTE   UNIT     CODE           ?PR?GPIO_VINIT?GPIO
000824H   00085FH   00003CH   BYTE   UNIT     CODE           ?PR?_UART0_VINIT?UART
000860H   000891H   000032H   BYTE   UNIT     CODE           ?PR?TIMER0_ISR?MAIN
000892H   0008BFH   00002EH   BYTE   UNIT     CODE           ?PR?_OSCILLATOR_VMULTIPLIERFRECINIT?OSCILLATOR
0008C0H   0008ECH   00002DH   BYTE   UNIT     CODE           ?PR?_OSCILLATOR_VINIT?OSCILLATOR
0008EDH   000910H   000024H   BYTE   UNIT     CODE           ?PR?TIMER0_VINIT?MAIN
000911H   000926H   000016H   BYTE   UNIT     CODE           ?PR?ADC0_VINIT?ADC0
000927H   00093BH   000015H   BYTE   UNIT     CODE           ?PR?ADC0_VSAMPLE?ADC0
00093CH   00094BH   000010H   BYTE   UNIT     CODE           ?PR?_OSCILLATOR_VLOWFRECINIT?OSCILLATOR
00094CH   000957H   00000CH   BYTE   UNIT     CODE           ?PR?_UART0_VSEND?UART
000958H   00095DH   000006H   BYTE   UNIT     CODE           ?PR?EXT0_ISR?EXTI
00095EH   000963H   000006H   BYTE   UNIT     CODE           ?PR?EXT1_ISR?EXTI

* * * * * * * * * * *  X D A T A   M E M O R Y  * * * * * * * * * * * * *
000000H   000007H   000008H   BYTE   INPAGE   PDATA          ?PD?UART

* * * * * * * * *   R E M O V E D     S E G M E N T S   * * * * * * * *
   *DEL*:           000019H   BYTE   UNIT     CODE           ?PR?EXT0_VINIT?EXTI
   *DEL*:           000019H   BYTE   UNIT     CODE           ?PR?EXT1_VINIT?EXTI



OVERLAY MAP OF MODULE:   C8051F340_UART.OMF.CRBUILD (ADC0)


FUNCTION/MODULE                                BIT_GROUP   DATA_GROUP 
--> CALLED FUNCTION/MODULE                    START  STOP  START  STOP
======================================================================
EXT0_ISR/EXTI                                 ----- -----  ----- -----

*** NEW ROOT ********************************

EXT1_ISR/EXTI                                 ----- -----  ----- -----
LX51 LINKER/LOCATER V4.66.97.0                                                        02/13/2020  01:59:39  PAGE 3



*** NEW ROOT ********************************

TIMER0_ISR/MAIN                               ----- -----  ----- -----

*** NEW ROOT ********************************

?C_C51STARTUP                                 ----- -----  ----- -----
  +--> MAIN/MAIN
  +--> ?C_INITSEG

MAIN/MAIN                                     ----- -----  0022H 0028H
  +--> _OSCILLATOR_VINIT/OSCILLATOR
  +--> _UART0_VINIT/UART
  +--> GPIO_VINIT/GPIO
  +--> ADC0_VINIT/ADC0
  +--> TIMER0_VINIT/MAIN
  +--> ADC0_VSAMPLE/ADC0
  +--> _UART0_VSEND/UART

_OSCILLATOR_VINIT/OSCILLATOR                  ----- -----  0029H 0029H
  +--> _OSCILLATOR_VHIGHFRECINIT/OSCILLATOR
  +--> _OSCILLATOR_VMULTIPLIERFRECINIT/OSCILLATOR
  +--> _OSCILLATOR_VLOWFRECINIT/OSCILLATOR

_OSCILLATOR_VHIGHFRECINIT/OSCILLATOR          ----- -----  ----- -----

_OSCILLATOR_VMULTIPLIERFRECINIT/OSCILLAT+     ----- -----  ----- -----
... OR

_OSCILLATOR_VLOWFRECINIT/OSCILLATOR           ----- -----  ----- -----

_UART0_VINIT/UART                             ----- -----  0029H 002DH
  +--> _TIMER1_VINIT/UART

_TIMER1_VINIT/UART                            ----- -----  002EH 0044H

GPIO_VINIT/GPIO                               ----- -----  ----- -----

ADC0_VINIT/ADC0                               ----- -----  ----- -----

TIMER0_VINIT/MAIN                             ----- -----  ----- -----

ADC0_VSAMPLE/ADC0                             ----- -----  ----- -----

_UART0_VSEND/UART                             ----- -----  ----- -----

?C_INITSEG                                    ----- -----  ----- -----



PUBLIC SYMBOLS OF MODULE:  C8051F340_UART.OMF.CRBUILD (ADC0)


      VALUE       CLASS    TYPE      PUBLIC SYMBOL NAME
      =================================================
      01000265H   CODE     ---       ?C?CASTF
      00000000H   NUMBER   ---       ?C?CODESEG
      01000231H   CODE     ---       ?C?FCASTC
      0100022CH   CODE     ---       ?C?FCASTI
      01000227H   CODE     ---       ?C?FCASTL
      0100001DH   CODE     ---       ?C?FPADD
LX51 LINKER/LOCATER V4.66.97.0                                                        02/13/2020  01:59:39  PAGE 4


      010001B0H   CODE     ---       ?C?FPCMP
      010001AEH   CODE     ---       ?C?FPCMP3
      01000111H   CODE     ---       ?C?FPDIV
      0100029CH   CODE     ---       ?C?FPGETOPN2
      010002D1H   CODE     ---       ?C?FPNANRESULT
      010002DBH   CODE     ---       ?C?FPOVERFLOW
      010002B3H   CODE     ---       ?C?FPRESULT
      010002C7H   CODE     ---       ?C?FPRESULT2
      01000019H   CODE     ---       ?C?FPSUB
      010002D8H   CODE     ---       ?C?FPUNDERFLOW
      0100033BH   CODE     ---       ?C?LNEG
      01000349H   CODE     ---       ?C?SLCMP
      010002E6H   CODE     ---       ?C?UIDIV
      0100035FH   CODE     ---       ?C?ULCMP
      00000000H   NUMBER   ---       ?C?XDATASEG
      01000742H   CODE     ---       ?C_START
      01000000H   CODE     ---       ?C_STARTUP
      01000006H   CODE     ---       _Oscillator_vHighFrecInit
      010008C0H   CODE     ---       _Oscillator_vInit
      0100093CH   CODE     ---       _Oscillator_vLowFrecInit
      01000892H   CODE     ---       _Oscillator_vMultiplierFrecInit
      01000370H   CODE     ---       _TIMER1_vInit
      01000824H   CODE     ---       _UART0_vInit
      0100094CH   CODE     ---       _UART0_vSend
*SFR* 000000D0H.6 DATA     BIT       AC
*SFR* 000000E0H   DATA     BYTE      ACC
*SFR* 000000C0H.1 DATA     BIT       ACK
*SFR* 000000C0H.3 DATA     BIT       ACKRQ
*SFR* 000000E8H.4 DATA     BIT       AD0BUSY
*SFR* 000000E8H.0 DATA     BIT       AD0CM0
*SFR* 000000E8H.1 DATA     BIT       AD0CM1
*SFR* 000000E8H.2 DATA     BIT       AD0CM2
*SFR* 000000E8H.7 DATA     BIT       AD0EN
*SFR* 000000E8H.5 DATA     BIT       AD0INT
*SFR* 000000E8H.6 DATA     BIT       AD0TM
*SFR* 000000E8H.3 DATA     BIT       AD0WINT
      01000911H   CODE     ---       ADC0_vInit
      01000927H   CODE     ---       ADC0_vSample
*SFR* 000000BCH   DATA     BYTE      ADC0CF
*SFR* 000000E8H   DATA     BYTE      ADC0CN
*SFR* 000000C4H   DATA     BYTE      ADC0GTH
*SFR* 000000C3H   DATA     BYTE      ADC0GTL
*SFR* 000000BEH   DATA     BYTE      ADC0H
*SFR* 000000BDH   DATA     BYTE      ADC0L
*SFR* 000000C6H   DATA     BYTE      ADC0LTH
*SFR* 000000C5H   DATA     BYTE      ADC0LTL
*SFR* 000000BAH   DATA     BYTE      AMX0N
*SFR* 000000BBH   DATA     BYTE      AMX0P
*SFR* 000000C0H.2 DATA     BIT       ARBLOST
*SFR* 000000F0H   DATA     BYTE      B
      00000020H   DATA     INT       bStatusPin
*SFR* 000000D8H.0 DATA     BIT       CCF0
*SFR* 000000D8H.1 DATA     BIT       CCF1
*SFR* 000000D8H.2 DATA     BIT       CCF2
*SFR* 000000D8H.3 DATA     BIT       CCF3
*SFR* 000000D8H.4 DATA     BIT       CCF4
*SFR* 000000D8H.7 DATA     BIT       CF
*SFR* 0000008EH   DATA     BYTE      CKCON
*SFR* 000000B9H   DATA     BYTE      CLKMUL
*SFR* 000000A9H   DATA     BYTE      CLKSEL
      0000004CH   DATA     ---       codificacion
      00000045H   DATA     ---       comunes
LX51 LINKER/LOCATER V4.66.97.0                                                        02/13/2020  01:59:39  PAGE 5


*SFR* 0000009BH   DATA     BYTE      CPT0CN
*SFR* 0000009DH   DATA     BYTE      CPT0MD
*SFR* 0000009FH   DATA     BYTE      CPT0MX
*SFR* 0000009AH   DATA     BYTE      CPT1CN
*SFR* 0000009CH   DATA     BYTE      CPT1MD
*SFR* 0000009EH   DATA     BYTE      CPT1MX
*SFR* 000000D8H.6 DATA     BIT       CR
*SFR* 000000D0H.7 DATA     BIT       CY
      00000056H   DATA     ---       display
*SFR* 00000083H   DATA     BYTE      DPH
*SFR* 00000082H   DATA     BYTE      DPL
*SFR* 000000A8H.7 DATA     BIT       EA
*SFR* 000000E6H   DATA     BYTE      EIE1
*SFR* 000000E7H   DATA     BYTE      EIE2
*SFR* 000000F6H   DATA     BYTE      EIP1
*SFR* 000000F7H   DATA     BYTE      EIP2
*SFR* 00000085H   DATA     BYTE      EMI0CF
*SFR* 000000AAH   DATA     BYTE      EMI0CN
*SFR* 00000084H   DATA     BYTE      EMI0TC
*SFR* 000000A8H.4 DATA     BIT       ES0
*SFR* 000000A8H.6 DATA     BIT       ESPI0
*SFR* 000000A8H.1 DATA     BIT       ET0
*SFR* 000000A8H.3 DATA     BIT       ET1
*SFR* 000000A8H.5 DATA     BIT       ET2
*SFR* 000000A8H.0 DATA     BIT       EX0
*SFR* 000000A8H.2 DATA     BIT       EX1
      01000958H   CODE     ---       EXT0_ISR
*DEL*:00000000H   CODE     ---       EXT0_vInit
      0100095EH   CODE     ---       EXT1_ISR
*DEL*:00000000H   CODE     ---       EXT1_vInit
*SFR* 000000D0H.5 DATA     BIT       F0
*SFR* 000000D0H.1 DATA     BIT       F1
*SFR* 000000B7H   DATA     BYTE      FLKEY
*SFR* 000000B6H   DATA     BYTE      FLSCL
      010007D6H   CODE     ---       GPIO_vInit
*SFR* 000000A8H   DATA     BYTE      IE
*SFR* 00000088H.1 DATA     BIT       IE0
*SFR* 00000088H.3 DATA     BIT       IE1
*SFR* 000000B8H   DATA     BYTE      IP
*SFR* 00000088H.0 DATA     BIT       IT0
*SFR* 000000E4H   DATA     BYTE      IT01CF
*SFR* 00000088H.2 DATA     BIT       IT1
*SFR* 000000A0H.2 DATA     BIT       LED1
*SFR* 000000A0H.3 DATA     BIT       LED2
      010005ACH   CODE     ---       main
*SFR* 000000C0H.7 DATA     BIT       MASTER
*SFR* 00000098H.5 DATA     BIT       MCE0
*SFR* 000000F8H.5 DATA     BIT       MODF
*SFR* 000000F8H.2 DATA     BIT       NSSMD0
*SFR* 000000F8H.3 DATA     BIT       NSSMD1
*SFR* 000000B3H   DATA     BYTE      OSCICL
*SFR* 000000B2H   DATA     BYTE      OSCICN
*SFR* 00000086H   DATA     BYTE      OSCLCN
*SFR* 000000B1H   DATA     BYTE      OSCXCN
*SFR* 000000D0H.2 DATA     BIT       OV
*SFR* 000000D0H.0 DATA     BIT       P
*SFR* 00000080H   DATA     BYTE      P0
*SFR* 000000F1H   DATA     BYTE      P0MDIN
*SFR* 000000A4H   DATA     BYTE      P0MDOUT
*SFR* 000000D4H   DATA     BYTE      P0SKIP
*SFR* 00000090H   DATA     BYTE      P1
*SFR* 000000F2H   DATA     BYTE      P1MDIN
LX51 LINKER/LOCATER V4.66.97.0                                                        02/13/2020  01:59:39  PAGE 6


*SFR* 000000A5H   DATA     BYTE      P1MDOUT
*SFR* 000000D5H   DATA     BYTE      P1SKIP
*SFR* 000000A0H   DATA     BYTE      P2
*SFR* 000000F3H   DATA     BYTE      P2MDIN
*SFR* 000000A6H   DATA     BYTE      P2MDOUT
*SFR* 000000D6H   DATA     BYTE      P2SKIP
*SFR* 000000B0H   DATA     BYTE      P3
*SFR* 000000F4H   DATA     BYTE      P3MDIN
*SFR* 000000A7H   DATA     BYTE      P3MDOUT
*SFR* 000000DFH   DATA     BYTE      P3SKIP
*SFR* 000000C7H   DATA     BYTE      P4
*SFR* 000000F5H   DATA     BYTE      P4MDIN
*SFR* 000000AEH   DATA     BYTE      P4MDOUT
*SFR* 000000D8H   DATA     BYTE      PCA0CN
*SFR* 000000FCH   DATA     BYTE      PCA0CPH0
*SFR* 000000EAH   DATA     BYTE      PCA0CPH1
*SFR* 000000ECH   DATA     BYTE      PCA0CPH2
*SFR* 000000EEH   DATA     BYTE      PCA0CPH3
*SFR* 000000FEH   DATA     BYTE      PCA0CPH4
*SFR* 000000FBH   DATA     BYTE      PCA0CPL0
*SFR* 000000E9H   DATA     BYTE      PCA0CPL1
*SFR* 000000EBH   DATA     BYTE      PCA0CPL2
*SFR* 000000EDH   DATA     BYTE      PCA0CPL3
*SFR* 000000FDH   DATA     BYTE      PCA0CPL4
*SFR* 000000DAH   DATA     BYTE      PCA0CPM0
*SFR* 000000DBH   DATA     BYTE      PCA0CPM1
*SFR* 000000DCH   DATA     BYTE      PCA0CPM2
*SFR* 000000DDH   DATA     BYTE      PCA0CPM3
*SFR* 000000DEH   DATA     BYTE      PCA0CPM4
*SFR* 000000FAH   DATA     BYTE      PCA0H
*SFR* 000000F9H   DATA     BYTE      PCA0L
*SFR* 000000D9H   DATA     BYTE      PCA0MD
*SFR* 00000087H   DATA     BYTE      PCON
*SFR* 000000AFH   DATA     BYTE      PFE0CN
*SFR* 000000B8H.4 DATA     BIT       PS0
*SFR* 0000008FH   DATA     BYTE      PSCTL
*SFR* 000000B8H.6 DATA     BIT       PSPI0
*SFR* 000000D0H   DATA     BYTE      PSW
*SFR* 000000B8H.1 DATA     BIT       PT0
*SFR* 000000B8H.3 DATA     BIT       PT1
*SFR* 000000B8H.5 DATA     BIT       PT2
*SFR* 000000B8H.0 DATA     BIT       PX0
*SFR* 000000B8H.2 DATA     BIT       PX1
*SFR* 00000098H.2 DATA     BIT       RB80
*SFR* 000000D1H   DATA     BYTE      REF0CN
*SFR* 000000C9H   DATA     BYTE      REG0CN
*SFR* 00000098H.4 DATA     BIT       REN0
*SFR* 00000098H.0 DATA     BIT       RI0
*SFR* 000000D0H.3 DATA     BIT       RS0
*SFR* 000000D0H.4 DATA     BIT       RS1
*SFR* 000000EFH   DATA     BYTE      RSTSRC
*SFR* 000000F8H.4 DATA     BIT       RXOVRN
*SFR* 00000098H.7 DATA     BIT       S0MODE
*SFR* 000000ACH   DATA     BYTE      SBCON1
*SFR* 000000B5H   DATA     BYTE      SBRLH1
*SFR* 000000B4H   DATA     BYTE      SBRLL1
*SFR* 00000099H   DATA     BYTE      SBUF0
*SFR* 000000D3H   DATA     BYTE      SBUF1
*SFR* 00000098H   DATA     BYTE      SCON0
*SFR* 000000D2H   DATA     BYTE      SCON1
*SFR* 000000C0H.0 DATA     BIT       SI
*SFR* 000000C1H   DATA     BYTE      SMB0CF
LX51 LINKER/LOCATER V4.66.97.0                                                        02/13/2020  01:59:39  PAGE 7


*SFR* 000000C0H   DATA     BYTE      SMB0CN
*SFR* 000000C2H   DATA     BYTE      SMB0DAT
*SFR* 000000E5H   DATA     BYTE      SMOD1
*SFR* 00000081H   DATA     BYTE      SP
*SFR* 000000A1H   DATA     BYTE      SPI0CFG
*SFR* 000000A2H   DATA     BYTE      SPI0CKR
*SFR* 000000F8H   DATA     BYTE      SPI0CN
*SFR* 000000A3H   DATA     BYTE      SPI0DAT
*SFR* 000000F8H.0 DATA     BIT       SPIEN
*SFR* 000000F8H.7 DATA     BIT       SPIF
      00000020H.0 DATA     BIT       sSwitch2LastValue
*SFR* 000000C0H.5 DATA     BIT       STA
*SFR* 000000C0H.4 DATA     BIT       STO
*SFR* 000000C8H.4 DATA     BIT       T2SOF
*SFR* 000000C8H.3 DATA     BIT       T2SPLIT
*SFR* 000000C8H.0 DATA     BIT       T2XCLK
*SFR* 00000098H.3 DATA     BIT       TB80
*SFR* 00000088H   DATA     BYTE      TCON
*SFR* 00000088H.5 DATA     BIT       TF0
*SFR* 00000088H.7 DATA     BIT       TF1
*SFR* 000000C8H.7 DATA     BIT       TF2H
*SFR* 000000C8H.6 DATA     BIT       TF2L
*SFR* 000000C8H.5 DATA     BIT       TF2LEN
*SFR* 0000008CH   DATA     BYTE      TH0
*SFR* 0000008DH   DATA     BYTE      TH1
*SFR* 00000098H.1 DATA     BIT       TI0
      0000004AH   DATA     BYTE      Timer0_Count
      01000860H   CODE     ---       TIMER0_ISR
      0000004BH   DATA     BYTE      Timer0_OF
      010008EDH   CODE     ---       TIMER0_vInit
      00000049H   DATA     BYTE      Timer0Refresh
*SFR* 0000008AH   DATA     BYTE      TL0
*SFR* 0000008BH   DATA     BYTE      TL1
*SFR* 00000089H   DATA     BYTE      TMOD
*SFR* 000000C8H   DATA     BYTE      TMR2CN
*SFR* 000000CDH   DATA     BYTE      TMR2H
*SFR* 000000CCH   DATA     BYTE      TMR2L
*SFR* 000000CBH   DATA     BYTE      TMR2RLH
*SFR* 000000CAH   DATA     BYTE      TMR2RLL
*SFR* 00000091H   DATA     BYTE      TMR3CN
*SFR* 00000095H   DATA     BYTE      TMR3H
*SFR* 00000094H   DATA     BYTE      TMR3L
*SFR* 00000093H   DATA     BYTE      TMR3RLH
*SFR* 00000092H   DATA     BYTE      TMR3RLL
*SFR* 00000088H.4 DATA     BIT       TR0
*SFR* 00000088H.6 DATA     BIT       TR1
*SFR* 000000C8H.2 DATA     BIT       TR2
*SFR* 000000F8H.1 DATA     BIT       TXBMT
*SFR* 000000C0H.6 DATA     BIT       TXMODE
      0000000BH   DATA     ---       Uart0_pu8GetRx
      0000000EH   DATA     ---       Uart0_pu8GetTx
      00000011H   DATA     ---       Uart0_pu8PutRx
      00000014H   DATA     ---       Uart0_pu8PutTx
      00000008H   DATA     CHAR      Uart0_s8RxCounter
      00000009H   DATA     CHAR      Uart0_s8TxCounter
      02000000H   PDATA    ---       Uart0_u8RxBuffer
      02000004H   PDATA    ---       Uart0_u8TxBuffer
      0000000AH   DATA     CHAR      Uart_s8TxInit
*SFR* 00000096H   DATA     BYTE      USB0ADR
*SFR* 00000097H   DATA     BYTE      USB0DAT
*SFR* 000000D7H   DATA     BYTE      USB0XCN
*SFR* 000000FFH   DATA     BYTE      VDM0CN
LX51 LINKER/LOCATER V4.66.97.0                                                        02/13/2020  01:59:39  PAGE 8


*SFR* 000000F8H.6 DATA     BIT       WCOL
*SFR* 000000E1H   DATA     BYTE      XBR0
*SFR* 000000E2H   DATA     BYTE      XBR1
*SFR* 000000E3H   DATA     BYTE      XBR2



SYMBOL TABLE OF MODULE:  C8051F340_UART.OMF.CRBUILD (ADC0)

      VALUE       REP       CLASS    TYPE      SYMBOL NAME
      ====================================================
      ---         MODULE    ---      ---       ADC0
      01000927H   PUBLIC    CODE     ---       ADC0_vSample
      01000911H   PUBLIC    CODE     ---       ADC0_vInit
      000000D8H.2 SFRSYM    DATA     BIT       CCF2
      00000098H.3 SFRSYM    DATA     BIT       TB80
      000000A2H   SFRSYM    DATA     BYTE      SPI0CKR
      000000D8H.3 SFRSYM    DATA     BIT       CCF3
      00000080H   SFRSYM    DATA     BYTE      P0
      000000F8H.0 SFRSYM    DATA     BIT       SPIEN
      000000D8H.4 SFRSYM    DATA     BIT       CCF4
      00000090H   SFRSYM    DATA     BYTE      P1
      000000A0H   SFRSYM    DATA     BYTE      P2
      000000BCH   SFRSYM    DATA     BYTE      ADC0CF
      000000B0H   SFRSYM    DATA     BYTE      P3
      000000D0H.6 SFRSYM    DATA     BIT       AC
      000000C7H   SFRSYM    DATA     BYTE      P4
      000000E6H   SFRSYM    DATA     BYTE      EIE1
      000000A8H.7 SFRSYM    DATA     BIT       EA
      00000098H.5 SFRSYM    DATA     BIT       MCE0
      000000E7H   SFRSYM    DATA     BYTE      EIE2
      000000D7H   SFRSYM    DATA     BYTE      USB0XCN
      0000008FH   SFRSYM    DATA     BYTE      PSCTL
      000000D8H.7 SFRSYM    DATA     BIT       CF
      000000E4H   SFRSYM    DATA     BYTE      IT01CF
      000000E8H   SFRSYM    DATA     BYTE      ADC0CN
      000000A4H   SFRSYM    DATA     BYTE      P0MDOUT
      000000A5H   SFRSYM    DATA     BYTE      P1MDOUT
      000000CBH   SFRSYM    DATA     BYTE      TMR2RLH
      000000A8H   SFRSYM    DATA     BYTE      IE
      000000A6H   SFRSYM    DATA     BYTE      P2MDOUT
      000000A7H   SFRSYM    DATA     BYTE      P3MDOUT
      00000093H   SFRSYM    DATA     BYTE      TMR3RLH
      000000F6H   SFRSYM    DATA     BYTE      EIP1
      000000AEH   SFRSYM    DATA     BYTE      P4MDOUT
      000000F8H.1 SFRSYM    DATA     BIT       TXBMT
      000000F7H   SFRSYM    DATA     BYTE      EIP2
      000000FCH   SFRSYM    DATA     BYTE      PCA0CPH0
      000000CAH   SFRSYM    DATA     BYTE      TMR2RLL
      000000EAH   SFRSYM    DATA     BYTE      PCA0CPH1
      00000092H   SFRSYM    DATA     BYTE      TMR3RLL
      000000ECH   SFRSYM    DATA     BYTE      PCA0CPH2
      000000D8H.6 SFRSYM    DATA     BIT       CR
      000000C8H.3 SFRSYM    DATA     BIT       T2SPLIT
      000000C8H.7 SFRSYM    DATA     BIT       TF2H
      000000EEH   SFRSYM    DATA     BYTE      PCA0CPH3
      00000098H.4 SFRSYM    DATA     BIT       REN0
      000000FEH   SFRSYM    DATA     BYTE      PCA0CPH4
      000000FBH   SFRSYM    DATA     BYTE      PCA0CPL0
      00000085H   SFRSYM    DATA     BYTE      EMI0CF
      000000E9H   SFRSYM    DATA     BYTE      PCA0CPL1
      000000DAH   SFRSYM    DATA     BYTE      PCA0CPM0
LX51 LINKER/LOCATER V4.66.97.0                                                        02/13/2020  01:59:39  PAGE 9


      000000D9H   SFRSYM    DATA     BYTE      PCA0MD
      000000D8H   SFRSYM    DATA     BYTE      PCA0CN
      000000EBH   SFRSYM    DATA     BYTE      PCA0CPL2
      000000DBH   SFRSYM    DATA     BYTE      PCA0CPM1
      000000C8H.6 SFRSYM    DATA     BIT       TF2L
      000000EDH   SFRSYM    DATA     BYTE      PCA0CPL3
      000000DCH   SFRSYM    DATA     BYTE      PCA0CPM2
      000000B8H   SFRSYM    DATA     BYTE      IP
      000000C0H.2 SFRSYM    DATA     BIT       ARBLOST
      000000FDH   SFRSYM    DATA     BYTE      PCA0CPL4
      000000DDH   SFRSYM    DATA     BYTE      PCA0CPM3
      000000DEH   SFRSYM    DATA     BYTE      PCA0CPM4
      000000D0H.7 SFRSYM    DATA     BIT       CY
      000000C0H.0 SFRSYM    DATA     BIT       SI
      000000E1H   SFRSYM    DATA     BYTE      XBR0
      000000C1H   SFRSYM    DATA     BYTE      SMB0CF
      000000E2H   SFRSYM    DATA     BYTE      XBR1
      000000AFH   SFRSYM    DATA     BYTE      PFE0CN
      000000AAH   SFRSYM    DATA     BYTE      EMI0CN
      000000E3H   SFRSYM    DATA     BYTE      XBR2
      000000D1H   SFRSYM    DATA     BYTE      REF0CN
      000000C9H   SFRSYM    DATA     BYTE      REG0CN
      000000E8H.5 SFRSYM    DATA     BIT       AD0INT
      00000081H   SFRSYM    DATA     BYTE      SP
      00000084H   SFRSYM    DATA     BYTE      EMI0TC
      000000D0H.2 SFRSYM    DATA     BIT       OV
      000000C0H   SFRSYM    DATA     BYTE      SMB0CN
      000000F8H.5 SFRSYM    DATA     BIT       MODF
      000000ACH   SFRSYM    DATA     BYTE      SBCON1
      00000098H.7 SFRSYM    DATA     BIT       S0MODE
      000000FFH   SFRSYM    DATA     BYTE      VDM0CN
      000000F1H   SFRSYM    DATA     BYTE      P0MDIN
      0000009DH   SFRSYM    DATA     BYTE      CPT0MD
      0000009BH   SFRSYM    DATA     BYTE      CPT0CN
      000000F2H   SFRSYM    DATA     BYTE      P1MDIN
      0000009CH   SFRSYM    DATA     BYTE      CPT1MD
      0000009AH   SFRSYM    DATA     BYTE      CPT1CN
      000000F3H   SFRSYM    DATA     BYTE      P2MDIN
      000000C8H.5 SFRSYM    DATA     BIT       TF2LEN
      000000F4H   SFRSYM    DATA     BYTE      P3MDIN
      000000F5H   SFRSYM    DATA     BYTE      P4MDIN
      000000B5H   SFRSYM    DATA     BYTE      SBRLH1
      000000F8H   SFRSYM    DATA     BYTE      SPI0CN
      00000087H   SFRSYM    DATA     BYTE      PCON
      000000B4H   SFRSYM    DATA     BYTE      SBRLL1
      000000F8H.7 SFRSYM    DATA     BIT       SPIF
      00000089H   SFRSYM    DATA     BYTE      TMOD
      00000088H   SFRSYM    DATA     BYTE      TCON
      000000F8H.6 SFRSYM    DATA     BIT       WCOL
      000000F8H.2 SFRSYM    DATA     BIT       NSSMD0
      000000F8H.3 SFRSYM    DATA     BIT       NSSMD1
      000000C8H   SFRSYM    DATA     BYTE      TMR2CN
      000000D4H   SFRSYM    DATA     BYTE      P0SKIP
      00000091H   SFRSYM    DATA     BYTE      TMR3CN
      000000C8H.0 SFRSYM    DATA     BIT       T2XCLK
      000000D5H   SFRSYM    DATA     BYTE      P1SKIP
      000000D6H   SFRSYM    DATA     BYTE      P2SKIP
      000000DFH   SFRSYM    DATA     BYTE      P3SKIP
      00000088H.1 SFRSYM    DATA     BIT       IE0
      0000009FH   SFRSYM    DATA     BYTE      CPT0MX
      00000088H.3 SFRSYM    DATA     BIT       IE1
      000000B3H   SFRSYM    DATA     BYTE      OSCICL
LX51 LINKER/LOCATER V4.66.97.0                                                        02/13/2020  01:59:39  PAGE 10


      0000009EH   SFRSYM    DATA     BYTE      CPT1MX
      000000A9H   SFRSYM    DATA     BYTE      CLKSEL
      000000F0H   SFRSYM    DATA     BYTE      B
      000000BEH   SFRSYM    DATA     BYTE      ADC0H
      000000B2H   SFRSYM    DATA     BYTE      OSCICN
      00000086H   SFRSYM    DATA     BYTE      OSCLCN
      000000BDH   SFRSYM    DATA     BYTE      ADC0L
      000000E0H   SFRSYM    DATA     BYTE      ACC
      000000A8H.4 SFRSYM    DATA     BIT       ES0
      000000E8H.7 SFRSYM    DATA     BIT       AD0EN
      000000A8H.1 SFRSYM    DATA     BIT       ET0
      000000A8H.3 SFRSYM    DATA     BIT       ET1
      00000088H.5 SFRSYM    DATA     BIT       TF0
      000000B9H   SFRSYM    DATA     BYTE      CLKMUL
      000000A8H.5 SFRSYM    DATA     BIT       ET2
      00000098H.0 SFRSYM    DATA     BIT       RI0
      00000088H.7 SFRSYM    DATA     BIT       TF1
      0000008CH   SFRSYM    DATA     BYTE      TH0
      000000A8H.0 SFRSYM    DATA     BIT       EX0
      00000098H.1 SFRSYM    DATA     BIT       TI0
      00000088H.0 SFRSYM    DATA     BIT       IT0
      000000FAH   SFRSYM    DATA     BYTE      PCA0H
      0000008DH   SFRSYM    DATA     BYTE      TH1
      000000C0H.7 SFRSYM    DATA     BIT       MASTER
      000000A8H.2 SFRSYM    DATA     BIT       EX1
      00000088H.2 SFRSYM    DATA     BIT       IT1
      000000D0H.0 SFRSYM    DATA     BIT       P
      000000C0H.1 SFRSYM    DATA     BIT       ACK
      000000B1H   SFRSYM    DATA     BYTE      OSCXCN
      0000008AH   SFRSYM    DATA     BYTE      TL0
      000000F9H   SFRSYM    DATA     BYTE      PCA0L
      0000008BH   SFRSYM    DATA     BYTE      TL1
      000000C0H.6 SFRSYM    DATA     BIT       TXMODE
      000000B8H.4 SFRSYM    DATA     BIT       PS0
      000000B8H.1 SFRSYM    DATA     BIT       PT0
      000000D0H.3 SFRSYM    DATA     BIT       RS0
      000000B8H.3 SFRSYM    DATA     BIT       PT1
      000000D0H.4 SFRSYM    DATA     BIT       RS1
      000000B8H.5 SFRSYM    DATA     BIT       PT2
      00000088H.4 SFRSYM    DATA     BIT       TR0
      000000E8H.6 SFRSYM    DATA     BIT       AD0TM
      00000088H.6 SFRSYM    DATA     BIT       TR1
      000000C8H.2 SFRSYM    DATA     BIT       TR2
      000000B8H.0 SFRSYM    DATA     BIT       PX0
      000000B8H.2 SFRSYM    DATA     BIT       PX1
      00000083H   SFRSYM    DATA     BYTE      DPH
      000000C4H   SFRSYM    DATA     BYTE      ADC0GTH
      00000082H   SFRSYM    DATA     BYTE      DPL
      000000C3H   SFRSYM    DATA     BYTE      ADC0GTL
      00000099H   SFRSYM    DATA     BYTE      SBUF0
      000000A8H.6 SFRSYM    DATA     BIT       ESPI0
      000000D3H   SFRSYM    DATA     BYTE      SBUF1
      000000C6H   SFRSYM    DATA     BYTE      ADC0LTH
      000000EFH   SFRSYM    DATA     BYTE      RSTSRC
      00000098H   SFRSYM    DATA     BYTE      SCON0
      000000E5H   SFRSYM    DATA     BYTE      SMOD1
      000000D2H   SFRSYM    DATA     BYTE      SCON1
      000000BAH   SFRSYM    DATA     BYTE      AMX0N
      000000C5H   SFRSYM    DATA     BYTE      ADC0LTL
      000000BBH   SFRSYM    DATA     BYTE      AMX0P
      000000C0H.5 SFRSYM    DATA     BIT       STA
      000000B8H.6 SFRSYM    DATA     BIT       PSPI0
LX51 LINKER/LOCATER V4.66.97.0                                                        02/13/2020  01:59:39  PAGE 11


      000000C2H   SFRSYM    DATA     BYTE      SMB0DAT
      000000CDH   SFRSYM    DATA     BYTE      TMR2H
      000000A1H   SFRSYM    DATA     BYTE      SPI0CFG
      000000C8H.4 SFRSYM    DATA     BIT       T2SOF
      00000095H   SFRSYM    DATA     BYTE      TMR3H
      0000008EH   SFRSYM    DATA     BYTE      CKCON
      000000F8H.4 SFRSYM    DATA     BIT       RXOVRN
      000000CCH   SFRSYM    DATA     BYTE      TMR2L
      000000C0H.3 SFRSYM    DATA     BIT       ACKRQ
      00000096H   SFRSYM    DATA     BYTE      USB0ADR
      00000094H   SFRSYM    DATA     BYTE      TMR3L
      000000D0H.5 SFRSYM    DATA     BIT       F0
      000000B6H   SFRSYM    DATA     BYTE      FLSCL
      00000097H   SFRSYM    DATA     BYTE      USB0DAT
      000000E8H.0 SFRSYM    DATA     BIT       AD0CM0
      000000D0H.1 SFRSYM    DATA     BIT       F1
      000000C0H.4 SFRSYM    DATA     BIT       STO
      000000E8H.1 SFRSYM    DATA     BIT       AD0CM1
      000000A3H   SFRSYM    DATA     BYTE      SPI0DAT
      000000E8H.2 SFRSYM    DATA     BIT       AD0CM2
      000000E8H.3 SFRSYM    DATA     BIT       AD0WINT
      000000E8H.4 SFRSYM    DATA     BIT       AD0BUSY
      000000D0H   SFRSYM    DATA     BYTE      PSW
      000000D8H.0 SFRSYM    DATA     BIT       CCF0
      00000098H.2 SFRSYM    DATA     BIT       RB80
      000000B7H   SFRSYM    DATA     BYTE      FLKEY
      000000D8H.1 SFRSYM    DATA     BIT       CCF1

      01000911H   BLOCK     CODE     ---       LVL=0
      01000911H   LINE      CODE     ---       #11
      01000911H   LINE      CODE     ---       #12
      01000911H   LINE      CODE     ---       #13
      01000914H   LINE      CODE     ---       #14
      01000917H   LINE      CODE     ---       #15
      0100091AH   LINE      CODE     ---       #16
      0100091DH   LINE      CODE     ---       #17
      01000920H   LINE      CODE     ---       #18
      01000923H   LINE      CODE     ---       #19
      01000926H   LINE      CODE     ---       #20
      ---         BLOCKEND  ---      ---       LVL=0

      01000927H   BLOCK     CODE     ---       LVL=0
      01000927H   BLOCK     CODE     NEAR LAB  LVL=1
      00000006H   SYMBOL    DATA     WORD      u16Value
      ---         BLOCKEND  ---      ---       LVL=1
      01000927H   LINE      CODE     ---       #22
      01000927H   LINE      CODE     ---       #23
      01000927H   LINE      CODE     ---       #24
      0100092BH   LINE      CODE     ---       #25
      0100092EH   LINE      CODE     ---       #26
      01000933H   LINE      CODE     ---       #27
      01000937H   LINE      CODE     ---       #28
      0100093BH   LINE      CODE     ---       #30
      0100093BH   LINE      CODE     ---       #31
      ---         BLOCKEND  ---      ---       LVL=0

      ---         MODULE    ---      ---       EXTI
      0100095EH   PUBLIC    CODE     ---       EXT1_ISR
      01000958H   PUBLIC    CODE     ---       EXT0_ISR
      000000D8H.2 SFRSYM    DATA     BIT       CCF2
      00000098H.3 SFRSYM    DATA     BIT       TB80
      000000A2H   SFRSYM    DATA     BYTE      SPI0CKR
LX51 LINKER/LOCATER V4.66.97.0                                                        02/13/2020  01:59:39  PAGE 12


      000000D8H.3 SFRSYM    DATA     BIT       CCF3
      00000080H   SFRSYM    DATA     BYTE      P0
      000000F8H.0 SFRSYM    DATA     BIT       SPIEN
      000000D8H.4 SFRSYM    DATA     BIT       CCF4
      00000090H   SFRSYM    DATA     BYTE      P1
      000000A0H   SFRSYM    DATA     BYTE      P2
      000000BCH   SFRSYM    DATA     BYTE      ADC0CF
      000000B0H   SFRSYM    DATA     BYTE      P3
      000000D0H.6 SFRSYM    DATA     BIT       AC
      000000C7H   SFRSYM    DATA     BYTE      P4
      000000E6H   SFRSYM    DATA     BYTE      EIE1
      000000A8H.7 SFRSYM    DATA     BIT       EA
      00000098H.5 SFRSYM    DATA     BIT       MCE0
      000000E7H   SFRSYM    DATA     BYTE      EIE2
      000000D7H   SFRSYM    DATA     BYTE      USB0XCN
      0000008FH   SFRSYM    DATA     BYTE      PSCTL
      000000D8H.7 SFRSYM    DATA     BIT       CF
      000000E4H   SFRSYM    DATA     BYTE      IT01CF
      000000E8H   SFRSYM    DATA     BYTE      ADC0CN
      000000A4H   SFRSYM    DATA     BYTE      P0MDOUT
      000000A5H   SFRSYM    DATA     BYTE      P1MDOUT
      000000CBH   SFRSYM    DATA     BYTE      TMR2RLH
      000000A8H   SFRSYM    DATA     BYTE      IE
      000000A6H   SFRSYM    DATA     BYTE      P2MDOUT
      000000A7H   SFRSYM    DATA     BYTE      P3MDOUT
      00000093H   SFRSYM    DATA     BYTE      TMR3RLH
      000000F6H   SFRSYM    DATA     BYTE      EIP1
      000000AEH   SFRSYM    DATA     BYTE      P4MDOUT
      000000F8H.1 SFRSYM    DATA     BIT       TXBMT
      000000F7H   SFRSYM    DATA     BYTE      EIP2
      000000FCH   SFRSYM    DATA     BYTE      PCA0CPH0
      000000CAH   SFRSYM    DATA     BYTE      TMR2RLL
      000000EAH   SFRSYM    DATA     BYTE      PCA0CPH1
      00000092H   SFRSYM    DATA     BYTE      TMR3RLL
      000000ECH   SFRSYM    DATA     BYTE      PCA0CPH2
      000000D8H.6 SFRSYM    DATA     BIT       CR
      000000C8H.3 SFRSYM    DATA     BIT       T2SPLIT
      000000C8H.7 SFRSYM    DATA     BIT       TF2H
      000000EEH   SFRSYM    DATA     BYTE      PCA0CPH3
      00000098H.4 SFRSYM    DATA     BIT       REN0
      000000FEH   SFRSYM    DATA     BYTE      PCA0CPH4
      000000FBH   SFRSYM    DATA     BYTE      PCA0CPL0
      00000085H   SFRSYM    DATA     BYTE      EMI0CF
      000000E9H   SFRSYM    DATA     BYTE      PCA0CPL1
      000000DAH   SFRSYM    DATA     BYTE      PCA0CPM0
      000000D9H   SFRSYM    DATA     BYTE      PCA0MD
      000000D8H   SFRSYM    DATA     BYTE      PCA0CN
      000000EBH   SFRSYM    DATA     BYTE      PCA0CPL2
      000000DBH   SFRSYM    DATA     BYTE      PCA0CPM1
      000000C8H.6 SFRSYM    DATA     BIT       TF2L
      000000EDH   SFRSYM    DATA     BYTE      PCA0CPL3
      000000DCH   SFRSYM    DATA     BYTE      PCA0CPM2
      000000B8H   SFRSYM    DATA     BYTE      IP
      000000C0H.2 SFRSYM    DATA     BIT       ARBLOST
      000000FDH   SFRSYM    DATA     BYTE      PCA0CPL4
      000000DDH   SFRSYM    DATA     BYTE      PCA0CPM3
      000000DEH   SFRSYM    DATA     BYTE      PCA0CPM4
      000000D0H.7 SFRSYM    DATA     BIT       CY
      000000C0H.0 SFRSYM    DATA     BIT       SI
      000000E1H   SFRSYM    DATA     BYTE      XBR0
      000000C1H   SFRSYM    DATA     BYTE      SMB0CF
      000000E2H   SFRSYM    DATA     BYTE      XBR1
LX51 LINKER/LOCATER V4.66.97.0                                                        02/13/2020  01:59:39  PAGE 13


      000000AFH   SFRSYM    DATA     BYTE      PFE0CN
      000000AAH   SFRSYM    DATA     BYTE      EMI0CN
      000000E3H   SFRSYM    DATA     BYTE      XBR2
      000000D1H   SFRSYM    DATA     BYTE      REF0CN
      000000C9H   SFRSYM    DATA     BYTE      REG0CN
      000000E8H.5 SFRSYM    DATA     BIT       AD0INT
      00000081H   SFRSYM    DATA     BYTE      SP
      00000084H   SFRSYM    DATA     BYTE      EMI0TC
      000000D0H.2 SFRSYM    DATA     BIT       OV
      000000C0H   SFRSYM    DATA     BYTE      SMB0CN
      000000F8H.5 SFRSYM    DATA     BIT       MODF
      000000ACH   SFRSYM    DATA     BYTE      SBCON1
      00000098H.7 SFRSYM    DATA     BIT       S0MODE
      000000FFH   SFRSYM    DATA     BYTE      VDM0CN
      000000F1H   SFRSYM    DATA     BYTE      P0MDIN
      0000009DH   SFRSYM    DATA     BYTE      CPT0MD
      0000009BH   SFRSYM    DATA     BYTE      CPT0CN
      000000F2H   SFRSYM    DATA     BYTE      P1MDIN
      0000009CH   SFRSYM    DATA     BYTE      CPT1MD
      0000009AH   SFRSYM    DATA     BYTE      CPT1CN
      000000F3H   SFRSYM    DATA     BYTE      P2MDIN
      000000C8H.5 SFRSYM    DATA     BIT       TF2LEN
      000000F4H   SFRSYM    DATA     BYTE      P3MDIN
      000000F5H   SFRSYM    DATA     BYTE      P4MDIN
      000000B5H   SFRSYM    DATA     BYTE      SBRLH1
      000000F8H   SFRSYM    DATA     BYTE      SPI0CN
      00000087H   SFRSYM    DATA     BYTE      PCON
      000000B4H   SFRSYM    DATA     BYTE      SBRLL1
      000000F8H.7 SFRSYM    DATA     BIT       SPIF
      00000089H   SFRSYM    DATA     BYTE      TMOD
      00000088H   SFRSYM    DATA     BYTE      TCON
      000000F8H.6 SFRSYM    DATA     BIT       WCOL
      000000F8H.2 SFRSYM    DATA     BIT       NSSMD0
      000000F8H.3 SFRSYM    DATA     BIT       NSSMD1
      000000C8H   SFRSYM    DATA     BYTE      TMR2CN
      000000D4H   SFRSYM    DATA     BYTE      P0SKIP
      00000091H   SFRSYM    DATA     BYTE      TMR3CN
      000000C8H.0 SFRSYM    DATA     BIT       T2XCLK
      000000D5H   SFRSYM    DATA     BYTE      P1SKIP
      000000D6H   SFRSYM    DATA     BYTE      P2SKIP
      000000DFH   SFRSYM    DATA     BYTE      P3SKIP
      00000088H.1 SFRSYM    DATA     BIT       IE0
      0000009FH   SFRSYM    DATA     BYTE      CPT0MX
      00000088H.3 SFRSYM    DATA     BIT       IE1
      000000B3H   SFRSYM    DATA     BYTE      OSCICL
      0000009EH   SFRSYM    DATA     BYTE      CPT1MX
      000000A9H   SFRSYM    DATA     BYTE      CLKSEL
      000000F0H   SFRSYM    DATA     BYTE      B
      000000BEH   SFRSYM    DATA     BYTE      ADC0H
      000000B2H   SFRSYM    DATA     BYTE      OSCICN
      00000086H   SFRSYM    DATA     BYTE      OSCLCN
      000000BDH   SFRSYM    DATA     BYTE      ADC0L
      000000E0H   SFRSYM    DATA     BYTE      ACC
      000000A8H.4 SFRSYM    DATA     BIT       ES0
      000000E8H.7 SFRSYM    DATA     BIT       AD0EN
      000000A8H.1 SFRSYM    DATA     BIT       ET0
      000000A8H.3 SFRSYM    DATA     BIT       ET1
      00000088H.5 SFRSYM    DATA     BIT       TF0
      000000B9H   SFRSYM    DATA     BYTE      CLKMUL
      000000A8H.5 SFRSYM    DATA     BIT       ET2
      00000098H.0 SFRSYM    DATA     BIT       RI0
      00000088H.7 SFRSYM    DATA     BIT       TF1
LX51 LINKER/LOCATER V4.66.97.0                                                        02/13/2020  01:59:39  PAGE 14


      0000008CH   SFRSYM    DATA     BYTE      TH0
      000000A8H.0 SFRSYM    DATA     BIT       EX0
      00000098H.1 SFRSYM    DATA     BIT       TI0
      00000088H.0 SFRSYM    DATA     BIT       IT0
      000000FAH   SFRSYM    DATA     BYTE      PCA0H
      0000008DH   SFRSYM    DATA     BYTE      TH1
      000000C0H.7 SFRSYM    DATA     BIT       MASTER
      000000A8H.2 SFRSYM    DATA     BIT       EX1
      00000088H.2 SFRSYM    DATA     BIT       IT1
      000000D0H.0 SFRSYM    DATA     BIT       P
      000000C0H.1 SFRSYM    DATA     BIT       ACK
      000000B1H   SFRSYM    DATA     BYTE      OSCXCN
      0000008AH   SFRSYM    DATA     BYTE      TL0
      000000F9H   SFRSYM    DATA     BYTE      PCA0L
      0000008BH   SFRSYM    DATA     BYTE      TL1
      000000C0H.6 SFRSYM    DATA     BIT       TXMODE
      000000B8H.4 SFRSYM    DATA     BIT       PS0
      000000B8H.1 SFRSYM    DATA     BIT       PT0
      000000D0H.3 SFRSYM    DATA     BIT       RS0
      000000B8H.3 SFRSYM    DATA     BIT       PT1
      000000D0H.4 SFRSYM    DATA     BIT       RS1
      000000B8H.5 SFRSYM    DATA     BIT       PT2
      00000088H.4 SFRSYM    DATA     BIT       TR0
      000000E8H.6 SFRSYM    DATA     BIT       AD0TM
      00000088H.6 SFRSYM    DATA     BIT       TR1
      000000C8H.2 SFRSYM    DATA     BIT       TR2
      000000B8H.0 SFRSYM    DATA     BIT       PX0
      000000B8H.2 SFRSYM    DATA     BIT       PX1
      00000083H   SFRSYM    DATA     BYTE      DPH
      000000C4H   SFRSYM    DATA     BYTE      ADC0GTH
      00000082H   SFRSYM    DATA     BYTE      DPL
      000000C3H   SFRSYM    DATA     BYTE      ADC0GTL
      00000099H   SFRSYM    DATA     BYTE      SBUF0
      000000A8H.6 SFRSYM    DATA     BIT       ESPI0
      000000D3H   SFRSYM    DATA     BYTE      SBUF1
      000000C6H   SFRSYM    DATA     BYTE      ADC0LTH
      000000EFH   SFRSYM    DATA     BYTE      RSTSRC
      00000098H   SFRSYM    DATA     BYTE      SCON0
      000000E5H   SFRSYM    DATA     BYTE      SMOD1
      000000D2H   SFRSYM    DATA     BYTE      SCON1
      000000BAH   SFRSYM    DATA     BYTE      AMX0N
      000000C5H   SFRSYM    DATA     BYTE      ADC0LTL
      000000BBH   SFRSYM    DATA     BYTE      AMX0P
      000000C0H.5 SFRSYM    DATA     BIT       STA
      000000B8H.6 SFRSYM    DATA     BIT       PSPI0
      000000C2H   SFRSYM    DATA     BYTE      SMB0DAT
      000000CDH   SFRSYM    DATA     BYTE      TMR2H
      000000A1H   SFRSYM    DATA     BYTE      SPI0CFG
      000000C8H.4 SFRSYM    DATA     BIT       T2SOF
      00000095H   SFRSYM    DATA     BYTE      TMR3H
      0000008EH   SFRSYM    DATA     BYTE      CKCON
      000000F8H.4 SFRSYM    DATA     BIT       RXOVRN
      000000CCH   SFRSYM    DATA     BYTE      TMR2L
      000000C0H.3 SFRSYM    DATA     BIT       ACKRQ
      00000096H   SFRSYM    DATA     BYTE      USB0ADR
      00000094H   SFRSYM    DATA     BYTE      TMR3L
      000000D0H.5 SFRSYM    DATA     BIT       F0
      000000B6H   SFRSYM    DATA     BYTE      FLSCL
      00000097H   SFRSYM    DATA     BYTE      USB0DAT
      000000E8H.0 SFRSYM    DATA     BIT       AD0CM0
      000000D0H.1 SFRSYM    DATA     BIT       F1
      000000C0H.4 SFRSYM    DATA     BIT       STO
LX51 LINKER/LOCATER V4.66.97.0                                                        02/13/2020  01:59:39  PAGE 15


      000000E8H.1 SFRSYM    DATA     BIT       AD0CM1
      000000A3H   SFRSYM    DATA     BYTE      SPI0DAT
      000000E8H.2 SFRSYM    DATA     BIT       AD0CM2
      000000E8H.3 SFRSYM    DATA     BIT       AD0WINT
      000000E8H.4 SFRSYM    DATA     BIT       AD0BUSY
      000000D0H   SFRSYM    DATA     BYTE      PSW
      000000D8H.0 SFRSYM    DATA     BIT       CCF0
      00000098H.2 SFRSYM    DATA     BIT       RB80
      000000B7H   SFRSYM    DATA     BYTE      FLKEY
      000000D8H.1 SFRSYM    DATA     BIT       CCF1

      01000958H   BLOCK     CODE     ---       LVL=0
      01000958H   LINE      CODE     ---       #42
      01000958H   LINE      CODE     ---       #44
      0100095AH   LINE      CODE     ---       #45
      0100095DH   LINE      CODE     ---       #46
      ---         BLOCKEND  ---      ---       LVL=0

      0100095EH   BLOCK     CODE     ---       LVL=0
      0100095EH   LINE      CODE     ---       #48
      0100095EH   LINE      CODE     ---       #50
      01000960H   LINE      CODE     ---       #51
      01000963H   LINE      CODE     ---       #52
      ---         BLOCKEND  ---      ---       LVL=0

      ---         MODULE    ---      ---       GPIO
      00000020H.0 PUBLIC    DATA     BIT       sSwitch2LastValue
      00000020H   PUBLIC    DATA     INT       bStatusPin
      010007D6H   PUBLIC    CODE     ---       GPIO_vInit
      000000D8H.2 SFRSYM    DATA     BIT       CCF2
      00000098H.3 SFRSYM    DATA     BIT       TB80
      000000A2H   SFRSYM    DATA     BYTE      SPI0CKR
      000000D8H.3 SFRSYM    DATA     BIT       CCF3
      00000080H   SFRSYM    DATA     BYTE      P0
      000000F8H.0 SFRSYM    DATA     BIT       SPIEN
      000000D8H.4 SFRSYM    DATA     BIT       CCF4
      00000090H   SFRSYM    DATA     BYTE      P1
      000000A0H   SFRSYM    DATA     BYTE      P2
      000000BCH   SFRSYM    DATA     BYTE      ADC0CF
      000000B0H   SFRSYM    DATA     BYTE      P3
      000000D0H.6 SFRSYM    DATA     BIT       AC
      000000C7H   SFRSYM    DATA     BYTE      P4
      000000E6H   SFRSYM    DATA     BYTE      EIE1
      000000A8H.7 SFRSYM    DATA     BIT       EA
      00000098H.5 SFRSYM    DATA     BIT       MCE0
      000000E7H   SFRSYM    DATA     BYTE      EIE2
      000000D7H   SFRSYM    DATA     BYTE      USB0XCN
      0000008FH   SFRSYM    DATA     BYTE      PSCTL
      000000D8H.7 SFRSYM    DATA     BIT       CF
      000000E4H   SFRSYM    DATA     BYTE      IT01CF
      000000E8H   SFRSYM    DATA     BYTE      ADC0CN
      000000A4H   SFRSYM    DATA     BYTE      P0MDOUT
      000000A5H   SFRSYM    DATA     BYTE      P1MDOUT
      000000CBH   SFRSYM    DATA     BYTE      TMR2RLH
      000000A8H   SFRSYM    DATA     BYTE      IE
      000000A6H   SFRSYM    DATA     BYTE      P2MDOUT
      000000A7H   SFRSYM    DATA     BYTE      P3MDOUT
      00000093H   SFRSYM    DATA     BYTE      TMR3RLH
      000000F6H   SFRSYM    DATA     BYTE      EIP1
      000000AEH   SFRSYM    DATA     BYTE      P4MDOUT
      000000F8H.1 SFRSYM    DATA     BIT       TXBMT
      000000F7H   SFRSYM    DATA     BYTE      EIP2
LX51 LINKER/LOCATER V4.66.97.0                                                        02/13/2020  01:59:39  PAGE 16


      000000FCH   SFRSYM    DATA     BYTE      PCA0CPH0
      000000CAH   SFRSYM    DATA     BYTE      TMR2RLL
      000000EAH   SFRSYM    DATA     BYTE      PCA0CPH1
      00000092H   SFRSYM    DATA     BYTE      TMR3RLL
      000000ECH   SFRSYM    DATA     BYTE      PCA0CPH2
      000000D8H.6 SFRSYM    DATA     BIT       CR
      000000C8H.3 SFRSYM    DATA     BIT       T2SPLIT
      000000C8H.7 SFRSYM    DATA     BIT       TF2H
      000000EEH   SFRSYM    DATA     BYTE      PCA0CPH3
      00000098H.4 SFRSYM    DATA     BIT       REN0
      000000FEH   SFRSYM    DATA     BYTE      PCA0CPH4
      000000FBH   SFRSYM    DATA     BYTE      PCA0CPL0
      00000085H   SFRSYM    DATA     BYTE      EMI0CF
      000000E9H   SFRSYM    DATA     BYTE      PCA0CPL1
      000000DAH   SFRSYM    DATA     BYTE      PCA0CPM0
      000000D9H   SFRSYM    DATA     BYTE      PCA0MD
      000000D8H   SFRSYM    DATA     BYTE      PCA0CN
      000000EBH   SFRSYM    DATA     BYTE      PCA0CPL2
      000000DBH   SFRSYM    DATA     BYTE      PCA0CPM1
      000000C8H.6 SFRSYM    DATA     BIT       TF2L
      000000EDH   SFRSYM    DATA     BYTE      PCA0CPL3
      000000DCH   SFRSYM    DATA     BYTE      PCA0CPM2
      000000B8H   SFRSYM    DATA     BYTE      IP
      000000C0H.2 SFRSYM    DATA     BIT       ARBLOST
      000000FDH   SFRSYM    DATA     BYTE      PCA0CPL4
      000000DDH   SFRSYM    DATA     BYTE      PCA0CPM3
      000000DEH   SFRSYM    DATA     BYTE      PCA0CPM4
      000000D0H.7 SFRSYM    DATA     BIT       CY
      000000C0H.0 SFRSYM    DATA     BIT       SI
      000000E1H   SFRSYM    DATA     BYTE      XBR0
      000000C1H   SFRSYM    DATA     BYTE      SMB0CF
      000000E2H   SFRSYM    DATA     BYTE      XBR1
      000000AFH   SFRSYM    DATA     BYTE      PFE0CN
      000000AAH   SFRSYM    DATA     BYTE      EMI0CN
      000000E3H   SFRSYM    DATA     BYTE      XBR2
      000000D1H   SFRSYM    DATA     BYTE      REF0CN
      000000C9H   SFRSYM    DATA     BYTE      REG0CN
      000000E8H.5 SFRSYM    DATA     BIT       AD0INT
      00000081H   SFRSYM    DATA     BYTE      SP
      00000084H   SFRSYM    DATA     BYTE      EMI0TC
      000000D0H.2 SFRSYM    DATA     BIT       OV
      000000C0H   SFRSYM    DATA     BYTE      SMB0CN
      000000F8H.5 SFRSYM    DATA     BIT       MODF
      000000ACH   SFRSYM    DATA     BYTE      SBCON1
      00000098H.7 SFRSYM    DATA     BIT       S0MODE
      000000FFH   SFRSYM    DATA     BYTE      VDM0CN
      000000F1H   SFRSYM    DATA     BYTE      P0MDIN
      0000009DH   SFRSYM    DATA     BYTE      CPT0MD
      0000009BH   SFRSYM    DATA     BYTE      CPT0CN
      000000F2H   SFRSYM    DATA     BYTE      P1MDIN
      0000009CH   SFRSYM    DATA     BYTE      CPT1MD
      0000009AH   SFRSYM    DATA     BYTE      CPT1CN
      000000F3H   SFRSYM    DATA     BYTE      P2MDIN
      000000C8H.5 SFRSYM    DATA     BIT       TF2LEN
      000000F4H   SFRSYM    DATA     BYTE      P3MDIN
      000000F5H   SFRSYM    DATA     BYTE      P4MDIN
      000000B5H   SFRSYM    DATA     BYTE      SBRLH1
      000000F8H   SFRSYM    DATA     BYTE      SPI0CN
      00000087H   SFRSYM    DATA     BYTE      PCON
      000000B4H   SFRSYM    DATA     BYTE      SBRLL1
      000000F8H.7 SFRSYM    DATA     BIT       SPIF
      00000089H   SFRSYM    DATA     BYTE      TMOD
LX51 LINKER/LOCATER V4.66.97.0                                                        02/13/2020  01:59:39  PAGE 17


      00000088H   SFRSYM    DATA     BYTE      TCON
      000000F8H.6 SFRSYM    DATA     BIT       WCOL
      000000F8H.2 SFRSYM    DATA     BIT       NSSMD0
      000000F8H.3 SFRSYM    DATA     BIT       NSSMD1
      000000C8H   SFRSYM    DATA     BYTE      TMR2CN
      000000D4H   SFRSYM    DATA     BYTE      P0SKIP
      00000091H   SFRSYM    DATA     BYTE      TMR3CN
      000000C8H.0 SFRSYM    DATA     BIT       T2XCLK
      000000D5H   SFRSYM    DATA     BYTE      P1SKIP
      000000D6H   SFRSYM    DATA     BYTE      P2SKIP
      000000DFH   SFRSYM    DATA     BYTE      P3SKIP
      00000088H.1 SFRSYM    DATA     BIT       IE0
      0000009FH   SFRSYM    DATA     BYTE      CPT0MX
      00000088H.3 SFRSYM    DATA     BIT       IE1
      000000B3H   SFRSYM    DATA     BYTE      OSCICL
      0000009EH   SFRSYM    DATA     BYTE      CPT1MX
      000000A9H   SFRSYM    DATA     BYTE      CLKSEL
      000000F0H   SFRSYM    DATA     BYTE      B
      000000BEH   SFRSYM    DATA     BYTE      ADC0H
      000000B2H   SFRSYM    DATA     BYTE      OSCICN
      00000086H   SFRSYM    DATA     BYTE      OSCLCN
      000000BDH   SFRSYM    DATA     BYTE      ADC0L
      000000E0H   SFRSYM    DATA     BYTE      ACC
      000000A8H.4 SFRSYM    DATA     BIT       ES0
      000000E8H.7 SFRSYM    DATA     BIT       AD0EN
      000000A8H.1 SFRSYM    DATA     BIT       ET0
      000000A8H.3 SFRSYM    DATA     BIT       ET1
      00000088H.5 SFRSYM    DATA     BIT       TF0
      000000B9H   SFRSYM    DATA     BYTE      CLKMUL
      000000A8H.5 SFRSYM    DATA     BIT       ET2
      00000098H.0 SFRSYM    DATA     BIT       RI0
      00000088H.7 SFRSYM    DATA     BIT       TF1
      0000008CH   SFRSYM    DATA     BYTE      TH0
      000000A8H.0 SFRSYM    DATA     BIT       EX0
      00000098H.1 SFRSYM    DATA     BIT       TI0
      00000088H.0 SFRSYM    DATA     BIT       IT0
      000000FAH   SFRSYM    DATA     BYTE      PCA0H
      0000008DH   SFRSYM    DATA     BYTE      TH1
      000000C0H.7 SFRSYM    DATA     BIT       MASTER
      000000A8H.2 SFRSYM    DATA     BIT       EX1
      00000088H.2 SFRSYM    DATA     BIT       IT1
      000000D0H.0 SFRSYM    DATA     BIT       P
      000000C0H.1 SFRSYM    DATA     BIT       ACK
      000000B1H   SFRSYM    DATA     BYTE      OSCXCN
      0000008AH   SFRSYM    DATA     BYTE      TL0
      000000F9H   SFRSYM    DATA     BYTE      PCA0L
      0000008BH   SFRSYM    DATA     BYTE      TL1
      000000C0H.6 SFRSYM    DATA     BIT       TXMODE
      000000B8H.4 SFRSYM    DATA     BIT       PS0
      000000B8H.1 SFRSYM    DATA     BIT       PT0
      000000D0H.3 SFRSYM    DATA     BIT       RS0
      000000B8H.3 SFRSYM    DATA     BIT       PT1
      000000D0H.4 SFRSYM    DATA     BIT       RS1
      000000B8H.5 SFRSYM    DATA     BIT       PT2
      00000088H.4 SFRSYM    DATA     BIT       TR0
      000000E8H.6 SFRSYM    DATA     BIT       AD0TM
      00000088H.6 SFRSYM    DATA     BIT       TR1
      000000C8H.2 SFRSYM    DATA     BIT       TR2
      000000B8H.0 SFRSYM    DATA     BIT       PX0
      000000B8H.2 SFRSYM    DATA     BIT       PX1
      00000083H   SFRSYM    DATA     BYTE      DPH
      000000C4H   SFRSYM    DATA     BYTE      ADC0GTH
LX51 LINKER/LOCATER V4.66.97.0                                                        02/13/2020  01:59:39  PAGE 18


      00000082H   SFRSYM    DATA     BYTE      DPL
      000000C3H   SFRSYM    DATA     BYTE      ADC0GTL
      00000099H   SFRSYM    DATA     BYTE      SBUF0
      000000A8H.6 SFRSYM    DATA     BIT       ESPI0
      000000D3H   SFRSYM    DATA     BYTE      SBUF1
      000000C6H   SFRSYM    DATA     BYTE      ADC0LTH
      000000EFH   SFRSYM    DATA     BYTE      RSTSRC
      00000098H   SFRSYM    DATA     BYTE      SCON0
      000000E5H   SFRSYM    DATA     BYTE      SMOD1
      000000D2H   SFRSYM    DATA     BYTE      SCON1
      000000BAH   SFRSYM    DATA     BYTE      AMX0N
      000000C5H   SFRSYM    DATA     BYTE      ADC0LTL
      000000BBH   SFRSYM    DATA     BYTE      AMX0P
      000000C0H.5 SFRSYM    DATA     BIT       STA
      000000B8H.6 SFRSYM    DATA     BIT       PSPI0
      000000C2H   SFRSYM    DATA     BYTE      SMB0DAT
      000000CDH   SFRSYM    DATA     BYTE      TMR2H
      000000A1H   SFRSYM    DATA     BYTE      SPI0CFG
      000000C8H.4 SFRSYM    DATA     BIT       T2SOF
      00000095H   SFRSYM    DATA     BYTE      TMR3H
      0000008EH   SFRSYM    DATA     BYTE      CKCON
      000000F8H.4 SFRSYM    DATA     BIT       RXOVRN
      000000CCH   SFRSYM    DATA     BYTE      TMR2L
      000000C0H.3 SFRSYM    DATA     BIT       ACKRQ
      00000096H   SFRSYM    DATA     BYTE      USB0ADR
      00000094H   SFRSYM    DATA     BYTE      TMR3L
      000000D0H.5 SFRSYM    DATA     BIT       F0
      000000B6H   SFRSYM    DATA     BYTE      FLSCL
      00000097H   SFRSYM    DATA     BYTE      USB0DAT
      000000E8H.0 SFRSYM    DATA     BIT       AD0CM0
      000000D0H.1 SFRSYM    DATA     BIT       F1
      000000C0H.4 SFRSYM    DATA     BIT       STO
      000000E8H.1 SFRSYM    DATA     BIT       AD0CM1
      000000A3H   SFRSYM    DATA     BYTE      SPI0DAT
      000000E8H.2 SFRSYM    DATA     BIT       AD0CM2
      000000E8H.3 SFRSYM    DATA     BIT       AD0WINT
      000000E8H.4 SFRSYM    DATA     BIT       AD0BUSY
      000000D0H   SFRSYM    DATA     BYTE      PSW
      000000D8H.0 SFRSYM    DATA     BIT       CCF0
      00000098H.2 SFRSYM    DATA     BIT       RB80
      000000B7H   SFRSYM    DATA     BYTE      FLKEY
      000000D8H.1 SFRSYM    DATA     BIT       CCF1

      010007D6H   BLOCK     CODE     ---       LVL=0
      010007D6H   LINE      CODE     ---       #22
      010007D6H   LINE      CODE     ---       #23
      010007D6H   LINE      CODE     ---       #25
      010007D9H   LINE      CODE     ---       #26
      010007DCH   LINE      CODE     ---       #27
      010007DFH   LINE      CODE     ---       #28
      010007E2H   LINE      CODE     ---       #31
      010007E5H   LINE      CODE     ---       #34
      010007E8H   LINE      CODE     ---       #35
      010007EBH   LINE      CODE     ---       #36
      010007EEH   LINE      CODE     ---       #37
      010007F1H   LINE      CODE     ---       #40
      010007F4H   LINE      CODE     ---       #41
      010007F7H   LINE      CODE     ---       #42
      010007FAH   LINE      CODE     ---       #43
      010007FDH   LINE      CODE     ---       #47
      01000800H   LINE      CODE     ---       #48
      01000803H   LINE      CODE     ---       #49
LX51 LINKER/LOCATER V4.66.97.0                                                        02/13/2020  01:59:39  PAGE 19


      01000806H   LINE      CODE     ---       #50
      01000809H   LINE      CODE     ---       #53
      0100080CH   LINE      CODE     ---       #54
      0100080EH   LINE      CODE     ---       #56
      01000811H   LINE      CODE     ---       #57
      01000814H   LINE      CODE     ---       #58
      01000817H   LINE      CODE     ---       #59
      0100081AH   LINE      CODE     ---       #63
      0100081DH   LINE      CODE     ---       #66
      01000820H   LINE      CODE     ---       #69
      01000823H   LINE      CODE     ---       #70
      ---         BLOCKEND  ---      ---       LVL=0

      ---         MODULE    ---      ---       OSCILLATOR
      01000006H   PUBLIC    CODE     ---       _Oscillator_vHighFrecInit
      0100093CH   PUBLIC    CODE     ---       _Oscillator_vLowFrecInit
      01000892H   PUBLIC    CODE     ---       _Oscillator_vMultiplierFrecInit
      010008C0H   PUBLIC    CODE     ---       _Oscillator_vInit
      000000D8H.2 SFRSYM    DATA     BIT       CCF2
      00000098H.3 SFRSYM    DATA     BIT       TB80
      000000A2H   SFRSYM    DATA     BYTE      SPI0CKR
      000000D8H.3 SFRSYM    DATA     BIT       CCF3
      00000080H   SFRSYM    DATA     BYTE      P0
      000000F8H.0 SFRSYM    DATA     BIT       SPIEN
      000000D8H.4 SFRSYM    DATA     BIT       CCF4
      00000090H   SFRSYM    DATA     BYTE      P1
      000000A0H   SFRSYM    DATA     BYTE      P2
      000000BCH   SFRSYM    DATA     BYTE      ADC0CF
      000000B0H   SFRSYM    DATA     BYTE      P3
      000000D0H.6 SFRSYM    DATA     BIT       AC
      000000C7H   SFRSYM    DATA     BYTE      P4
      000000E6H   SFRSYM    DATA     BYTE      EIE1
      000000A8H.7 SFRSYM    DATA     BIT       EA
      00000098H.5 SFRSYM    DATA     BIT       MCE0
      000000E7H   SFRSYM    DATA     BYTE      EIE2
      000000D7H   SFRSYM    DATA     BYTE      USB0XCN
      0000008FH   SFRSYM    DATA     BYTE      PSCTL
      000000D8H.7 SFRSYM    DATA     BIT       CF
      000000E4H   SFRSYM    DATA     BYTE      IT01CF
      000000E8H   SFRSYM    DATA     BYTE      ADC0CN
      000000A4H   SFRSYM    DATA     BYTE      P0MDOUT
      000000A5H   SFRSYM    DATA     BYTE      P1MDOUT
      000000CBH   SFRSYM    DATA     BYTE      TMR2RLH
      000000A8H   SFRSYM    DATA     BYTE      IE
      000000A6H   SFRSYM    DATA     BYTE      P2MDOUT
      000000A7H   SFRSYM    DATA     BYTE      P3MDOUT
      00000093H   SFRSYM    DATA     BYTE      TMR3RLH
      000000F6H   SFRSYM    DATA     BYTE      EIP1
      000000AEH   SFRSYM    DATA     BYTE      P4MDOUT
      000000F8H.1 SFRSYM    DATA     BIT       TXBMT
      000000F7H   SFRSYM    DATA     BYTE      EIP2
      000000FCH   SFRSYM    DATA     BYTE      PCA0CPH0
      000000CAH   SFRSYM    DATA     BYTE      TMR2RLL
      000000EAH   SFRSYM    DATA     BYTE      PCA0CPH1
      00000092H   SFRSYM    DATA     BYTE      TMR3RLL
      000000ECH   SFRSYM    DATA     BYTE      PCA0CPH2
      000000D8H.6 SFRSYM    DATA     BIT       CR
      000000C8H.3 SFRSYM    DATA     BIT       T2SPLIT
      000000C8H.7 SFRSYM    DATA     BIT       TF2H
      000000EEH   SFRSYM    DATA     BYTE      PCA0CPH3
      00000098H.4 SFRSYM    DATA     BIT       REN0
      000000FEH   SFRSYM    DATA     BYTE      PCA0CPH4
LX51 LINKER/LOCATER V4.66.97.0                                                        02/13/2020  01:59:39  PAGE 20


      000000FBH   SFRSYM    DATA     BYTE      PCA0CPL0
      00000085H   SFRSYM    DATA     BYTE      EMI0CF
      000000E9H   SFRSYM    DATA     BYTE      PCA0CPL1
      000000DAH   SFRSYM    DATA     BYTE      PCA0CPM0
      000000D9H   SFRSYM    DATA     BYTE      PCA0MD
      000000D8H   SFRSYM    DATA     BYTE      PCA0CN
      000000EBH   SFRSYM    DATA     BYTE      PCA0CPL2
      000000DBH   SFRSYM    DATA     BYTE      PCA0CPM1
      000000C8H.6 SFRSYM    DATA     BIT       TF2L
      000000EDH   SFRSYM    DATA     BYTE      PCA0CPL3
      000000DCH   SFRSYM    DATA     BYTE      PCA0CPM2
      000000B8H   SFRSYM    DATA     BYTE      IP
      000000C0H.2 SFRSYM    DATA     BIT       ARBLOST
      000000FDH   SFRSYM    DATA     BYTE      PCA0CPL4
      000000DDH   SFRSYM    DATA     BYTE      PCA0CPM3
      000000DEH   SFRSYM    DATA     BYTE      PCA0CPM4
      000000D0H.7 SFRSYM    DATA     BIT       CY
      000000C0H.0 SFRSYM    DATA     BIT       SI
      000000E1H   SFRSYM    DATA     BYTE      XBR0
      000000C1H   SFRSYM    DATA     BYTE      SMB0CF
      000000E2H   SFRSYM    DATA     BYTE      XBR1
      000000AFH   SFRSYM    DATA     BYTE      PFE0CN
      000000AAH   SFRSYM    DATA     BYTE      EMI0CN
      000000E3H   SFRSYM    DATA     BYTE      XBR2
      000000D1H   SFRSYM    DATA     BYTE      REF0CN
      000000C9H   SFRSYM    DATA     BYTE      REG0CN
      000000E8H.5 SFRSYM    DATA     BIT       AD0INT
      00000081H   SFRSYM    DATA     BYTE      SP
      00000084H   SFRSYM    DATA     BYTE      EMI0TC
      000000D0H.2 SFRSYM    DATA     BIT       OV
      000000C0H   SFRSYM    DATA     BYTE      SMB0CN
      000000F8H.5 SFRSYM    DATA     BIT       MODF
      000000ACH   SFRSYM    DATA     BYTE      SBCON1
      00000098H.7 SFRSYM    DATA     BIT       S0MODE
      000000FFH   SFRSYM    DATA     BYTE      VDM0CN
      000000F1H   SFRSYM    DATA     BYTE      P0MDIN
      0000009DH   SFRSYM    DATA     BYTE      CPT0MD
      0000009BH   SFRSYM    DATA     BYTE      CPT0CN
      000000F2H   SFRSYM    DATA     BYTE      P1MDIN
      0000009CH   SFRSYM    DATA     BYTE      CPT1MD
      0000009AH   SFRSYM    DATA     BYTE      CPT1CN
      000000F3H   SFRSYM    DATA     BYTE      P2MDIN
      000000C8H.5 SFRSYM    DATA     BIT       TF2LEN
      000000F4H   SFRSYM    DATA     BYTE      P3MDIN
      000000F5H   SFRSYM    DATA     BYTE      P4MDIN
      000000B5H   SFRSYM    DATA     BYTE      SBRLH1
      000000F8H   SFRSYM    DATA     BYTE      SPI0CN
      00000087H   SFRSYM    DATA     BYTE      PCON
      000000B4H   SFRSYM    DATA     BYTE      SBRLL1
      000000F8H.7 SFRSYM    DATA     BIT       SPIF
      00000089H   SFRSYM    DATA     BYTE      TMOD
      00000088H   SFRSYM    DATA     BYTE      TCON
      000000F8H.6 SFRSYM    DATA     BIT       WCOL
      000000F8H.2 SFRSYM    DATA     BIT       NSSMD0
      000000F8H.3 SFRSYM    DATA     BIT       NSSMD1
      000000C8H   SFRSYM    DATA     BYTE      TMR2CN
      000000D4H   SFRSYM    DATA     BYTE      P0SKIP
      00000091H   SFRSYM    DATA     BYTE      TMR3CN
      000000C8H.0 SFRSYM    DATA     BIT       T2XCLK
      000000D5H   SFRSYM    DATA     BYTE      P1SKIP
      000000D6H   SFRSYM    DATA     BYTE      P2SKIP
      000000DFH   SFRSYM    DATA     BYTE      P3SKIP
LX51 LINKER/LOCATER V4.66.97.0                                                        02/13/2020  01:59:39  PAGE 21


      00000088H.1 SFRSYM    DATA     BIT       IE0
      0000009FH   SFRSYM    DATA     BYTE      CPT0MX
      00000088H.3 SFRSYM    DATA     BIT       IE1
      000000B3H   SFRSYM    DATA     BYTE      OSCICL
      0000009EH   SFRSYM    DATA     BYTE      CPT1MX
      000000A9H   SFRSYM    DATA     BYTE      CLKSEL
      000000F0H   SFRSYM    DATA     BYTE      B
      000000BEH   SFRSYM    DATA     BYTE      ADC0H
      000000B2H   SFRSYM    DATA     BYTE      OSCICN
      00000086H   SFRSYM    DATA     BYTE      OSCLCN
      000000BDH   SFRSYM    DATA     BYTE      ADC0L
      000000E0H   SFRSYM    DATA     BYTE      ACC
      000000A8H.4 SFRSYM    DATA     BIT       ES0
      000000E8H.7 SFRSYM    DATA     BIT       AD0EN
      000000A8H.1 SFRSYM    DATA     BIT       ET0
      000000A8H.3 SFRSYM    DATA     BIT       ET1
      00000088H.5 SFRSYM    DATA     BIT       TF0
      000000B9H   SFRSYM    DATA     BYTE      CLKMUL
      000000A8H.5 SFRSYM    DATA     BIT       ET2
      00000098H.0 SFRSYM    DATA     BIT       RI0
      00000088H.7 SFRSYM    DATA     BIT       TF1
      0000008CH   SFRSYM    DATA     BYTE      TH0
      000000A8H.0 SFRSYM    DATA     BIT       EX0
      00000098H.1 SFRSYM    DATA     BIT       TI0
      00000088H.0 SFRSYM    DATA     BIT       IT0
      000000FAH   SFRSYM    DATA     BYTE      PCA0H
      0000008DH   SFRSYM    DATA     BYTE      TH1
      000000C0H.7 SFRSYM    DATA     BIT       MASTER
      000000A8H.2 SFRSYM    DATA     BIT       EX1
      00000088H.2 SFRSYM    DATA     BIT       IT1
      000000D0H.0 SFRSYM    DATA     BIT       P
      000000C0H.1 SFRSYM    DATA     BIT       ACK
      000000B1H   SFRSYM    DATA     BYTE      OSCXCN
      0000008AH   SFRSYM    DATA     BYTE      TL0
      000000F9H   SFRSYM    DATA     BYTE      PCA0L
      0000008BH   SFRSYM    DATA     BYTE      TL1
      000000C0H.6 SFRSYM    DATA     BIT       TXMODE
      000000B8H.4 SFRSYM    DATA     BIT       PS0
      000000B8H.1 SFRSYM    DATA     BIT       PT0
      000000D0H.3 SFRSYM    DATA     BIT       RS0
      000000B8H.3 SFRSYM    DATA     BIT       PT1
      000000D0H.4 SFRSYM    DATA     BIT       RS1
      000000B8H.5 SFRSYM    DATA     BIT       PT2
      00000088H.4 SFRSYM    DATA     BIT       TR0
      000000E8H.6 SFRSYM    DATA     BIT       AD0TM
      00000088H.6 SFRSYM    DATA     BIT       TR1
      000000C8H.2 SFRSYM    DATA     BIT       TR2
      000000B8H.0 SFRSYM    DATA     BIT       PX0
      000000B8H.2 SFRSYM    DATA     BIT       PX1
      00000083H   SFRSYM    DATA     BYTE      DPH
      000000C4H   SFRSYM    DATA     BYTE      ADC0GTH
      00000082H   SFRSYM    DATA     BYTE      DPL
      000000C3H   SFRSYM    DATA     BYTE      ADC0GTL
      00000099H   SFRSYM    DATA     BYTE      SBUF0
      000000A8H.6 SFRSYM    DATA     BIT       ESPI0
      000000D3H   SFRSYM    DATA     BYTE      SBUF1
      000000C6H   SFRSYM    DATA     BYTE      ADC0LTH
      000000EFH   SFRSYM    DATA     BYTE      RSTSRC
      00000098H   SFRSYM    DATA     BYTE      SCON0
      000000E5H   SFRSYM    DATA     BYTE      SMOD1
      000000D2H   SFRSYM    DATA     BYTE      SCON1
      000000BAH   SFRSYM    DATA     BYTE      AMX0N
LX51 LINKER/LOCATER V4.66.97.0                                                        02/13/2020  01:59:39  PAGE 22


      000000C5H   SFRSYM    DATA     BYTE      ADC0LTL
      000000BBH   SFRSYM    DATA     BYTE      AMX0P
      000000C0H.5 SFRSYM    DATA     BIT       STA
      000000B8H.6 SFRSYM    DATA     BIT       PSPI0
      000000C2H   SFRSYM    DATA     BYTE      SMB0DAT
      000000CDH   SFRSYM    DATA     BYTE      TMR2H
      000000A1H   SFRSYM    DATA     BYTE      SPI0CFG
      000000C8H.4 SFRSYM    DATA     BIT       T2SOF
      00000095H   SFRSYM    DATA     BYTE      TMR3H
      0000008EH   SFRSYM    DATA     BYTE      CKCON
      000000F8H.4 SFRSYM    DATA     BIT       RXOVRN
      000000CCH   SFRSYM    DATA     BYTE      TMR2L
      000000C0H.3 SFRSYM    DATA     BIT       ACKRQ
      00000096H   SFRSYM    DATA     BYTE      USB0ADR
      00000094H   SFRSYM    DATA     BYTE      TMR3L
      000000D0H.5 SFRSYM    DATA     BIT       F0
      000000B6H   SFRSYM    DATA     BYTE      FLSCL
      00000097H   SFRSYM    DATA     BYTE      USB0DAT
      000000E8H.0 SFRSYM    DATA     BIT       AD0CM0
      000000D0H.1 SFRSYM    DATA     BIT       F1
      000000C0H.4 SFRSYM    DATA     BIT       STO
      000000E8H.1 SFRSYM    DATA     BIT       AD0CM1
      000000A3H   SFRSYM    DATA     BYTE      SPI0DAT
      000000E8H.2 SFRSYM    DATA     BIT       AD0CM2
      000000E8H.3 SFRSYM    DATA     BIT       AD0WINT
      000000E8H.4 SFRSYM    DATA     BIT       AD0BUSY
      000000D0H   SFRSYM    DATA     BYTE      PSW
      000000D8H.0 SFRSYM    DATA     BIT       CCF0
      00000098H.2 SFRSYM    DATA     BIT       RB80
      000000B7H   SFRSYM    DATA     BYTE      FLKEY
      000000D8H.1 SFRSYM    DATA     BIT       CCF1

      010008C0H   BLOCK     CODE     ---       LVL=0
      00000029H   SYMBOL    DATA     BYTE      nSource
      010008C0H   LINE      CODE     ---       #11
      010008C2H   LINE      CODE     ---       #12
      010008C2H   LINE      CODE     ---       #14
      010008D2H   LINE      CODE     ---       #15
      010008D2H   LINE      CODE     ---       #16
      010008D2H   LINE      CODE     ---       #17
      010008D7H   LINE      CODE     ---       #18
      010008D9H   LINE      CODE     ---       #19
      010008D9H   LINE      CODE     ---       #20
      010008D9H   LINE      CODE     ---       #21
      010008DEH   LINE      CODE     ---       #22
      010008E0H   LINE      CODE     ---       #23
      010008E0H   LINE      CODE     ---       #24
      010008E5H   LINE      CODE     ---       #25
      010008E5H   LINE      CODE     ---       #26
      010008E5H   LINE      CODE     ---       #27
      010008E5H   LINE      CODE     ---       #30
      010008E5H   LINE      CODE     ---       #32
      010008E8H   LINE      CODE     ---       #33
      010008ECH   LINE      CODE     ---       #34
      ---         BLOCKEND  ---      ---       LVL=0

      01000892H   BLOCK     CODE     ---       LVL=0
      00000007H   SYMBOL    DATA     BYTE      nSource
      01000892H   BLOCK     CODE     NEAR LAB  LVL=1
      00000082H   SYMBOL    DATA     WORD      i
      ---         BLOCKEND  ---      ---       LVL=1
      01000892H   LINE      CODE     ---       #36
LX51 LINKER/LOCATER V4.66.97.0                                                        02/13/2020  01:59:39  PAGE 23


      01000892H   LINE      CODE     ---       #37
      01000892H   LINE      CODE     ---       #38
      01000892H   LINE      CODE     ---       #41
      01000895H   LINE      CODE     ---       #42
      01000898H   LINE      CODE     ---       #43
      0100089BH   LINE      CODE     ---       #44
      010008B6H   LINE      CODE     ---       #45
      010008B9H   LINE      CODE     ---       #46
      010008BFH   LINE      CODE     ---       #47
      ---         BLOCKEND  ---      ---       LVL=0

      0100093CH   BLOCK     CODE     ---       LVL=0
      00000007H   SYMBOL    DATA     BYTE      nDiv
      0100093CH   LINE      CODE     ---       #49
      0100093CH   LINE      CODE     ---       #50
      0100093CH   LINE      CODE     ---       #53
      0100093FH   LINE      CODE     ---       #54
      01000942H   LINE      CODE     ---       #56
      01000945H   LINE      CODE     ---       #57
      0100094BH   LINE      CODE     ---       #58
      ---         BLOCKEND  ---      ---       LVL=0

      01000006H   BLOCK     CODE     ---       LVL=0
      00000007H   SYMBOL    DATA     BYTE      nDiv
      01000006H   LINE      CODE     ---       #61
      01000006H   LINE      CODE     ---       #62
      01000006H   LINE      CODE     ---       #64
      01000009H   LINE      CODE     ---       #65
      ---         BLOCKEND  ---      ---       LVL=0

      ---         MODULE    ---      ---       UART
      00000014H   PUBLIC    DATA     ---       Uart0_pu8PutTx
      00000011H   PUBLIC    DATA     ---       Uart0_pu8PutRx
      0000000EH   PUBLIC    DATA     ---       Uart0_pu8GetTx
      0000000BH   PUBLIC    DATA     ---       Uart0_pu8GetRx
      0000000AH   PUBLIC    DATA     CHAR      Uart_s8TxInit
      00000009H   PUBLIC    DATA     CHAR      Uart0_s8TxCounter
      00000008H   PUBLIC    DATA     CHAR      Uart0_s8RxCounter
      02000004H   PUBLIC    PDATA    ---       Uart0_u8TxBuffer
      02000000H   PUBLIC    PDATA    ---       Uart0_u8RxBuffer
      01000370H   PUBLIC    CODE     ---       _TIMER1_vInit
      0100094CH   PUBLIC    CODE     ---       _UART0_vSend
      01000824H   PUBLIC    CODE     ---       _UART0_vInit
      000000D8H.2 SFRSYM    DATA     BIT       CCF2
      00000098H.3 SFRSYM    DATA     BIT       TB80
      000000A2H   SFRSYM    DATA     BYTE      SPI0CKR
      000000D8H.3 SFRSYM    DATA     BIT       CCF3
      00000080H   SFRSYM    DATA     BYTE      P0
      000000F8H.0 SFRSYM    DATA     BIT       SPIEN
      000000D8H.4 SFRSYM    DATA     BIT       CCF4
      00000090H   SFRSYM    DATA     BYTE      P1
      000000A0H   SFRSYM    DATA     BYTE      P2
      000000BCH   SFRSYM    DATA     BYTE      ADC0CF
      000000B0H   SFRSYM    DATA     BYTE      P3
      000000D0H.6 SFRSYM    DATA     BIT       AC
      000000C7H   SFRSYM    DATA     BYTE      P4
      000000E6H   SFRSYM    DATA     BYTE      EIE1
      000000A8H.7 SFRSYM    DATA     BIT       EA
      00000098H.5 SFRSYM    DATA     BIT       MCE0
      000000E7H   SFRSYM    DATA     BYTE      EIE2
      000000D7H   SFRSYM    DATA     BYTE      USB0XCN
      0000008FH   SFRSYM    DATA     BYTE      PSCTL
LX51 LINKER/LOCATER V4.66.97.0                                                        02/13/2020  01:59:39  PAGE 24


      000000D8H.7 SFRSYM    DATA     BIT       CF
      000000E4H   SFRSYM    DATA     BYTE      IT01CF
      000000E8H   SFRSYM    DATA     BYTE      ADC0CN
      000000A4H   SFRSYM    DATA     BYTE      P0MDOUT
      000000A5H   SFRSYM    DATA     BYTE      P1MDOUT
      000000CBH   SFRSYM    DATA     BYTE      TMR2RLH
      000000A8H   SFRSYM    DATA     BYTE      IE
      000000A6H   SFRSYM    DATA     BYTE      P2MDOUT
      000000A7H   SFRSYM    DATA     BYTE      P3MDOUT
      00000093H   SFRSYM    DATA     BYTE      TMR3RLH
      000000F6H   SFRSYM    DATA     BYTE      EIP1
      000000AEH   SFRSYM    DATA     BYTE      P4MDOUT
      000000F8H.1 SFRSYM    DATA     BIT       TXBMT
      000000F7H   SFRSYM    DATA     BYTE      EIP2
      000000FCH   SFRSYM    DATA     BYTE      PCA0CPH0
      000000CAH   SFRSYM    DATA     BYTE      TMR2RLL
      000000EAH   SFRSYM    DATA     BYTE      PCA0CPH1
      00000092H   SFRSYM    DATA     BYTE      TMR3RLL
      000000ECH   SFRSYM    DATA     BYTE      PCA0CPH2
      000000D8H.6 SFRSYM    DATA     BIT       CR
      000000C8H.3 SFRSYM    DATA     BIT       T2SPLIT
      000000C8H.7 SFRSYM    DATA     BIT       TF2H
      000000EEH   SFRSYM    DATA     BYTE      PCA0CPH3
      00000098H.4 SFRSYM    DATA     BIT       REN0
      000000FEH   SFRSYM    DATA     BYTE      PCA0CPH4
      000000FBH   SFRSYM    DATA     BYTE      PCA0CPL0
      00000085H   SFRSYM    DATA     BYTE      EMI0CF
      000000E9H   SFRSYM    DATA     BYTE      PCA0CPL1
      000000DAH   SFRSYM    DATA     BYTE      PCA0CPM0
      000000D9H   SFRSYM    DATA     BYTE      PCA0MD
      000000D8H   SFRSYM    DATA     BYTE      PCA0CN
      000000EBH   SFRSYM    DATA     BYTE      PCA0CPL2
      000000DBH   SFRSYM    DATA     BYTE      PCA0CPM1
      000000C8H.6 SFRSYM    DATA     BIT       TF2L
      000000EDH   SFRSYM    DATA     BYTE      PCA0CPL3
      000000DCH   SFRSYM    DATA     BYTE      PCA0CPM2
      000000B8H   SFRSYM    DATA     BYTE      IP
      000000C0H.2 SFRSYM    DATA     BIT       ARBLOST
      000000FDH   SFRSYM    DATA     BYTE      PCA0CPL4
      000000DDH   SFRSYM    DATA     BYTE      PCA0CPM3
      000000DEH   SFRSYM    DATA     BYTE      PCA0CPM4
      000000D0H.7 SFRSYM    DATA     BIT       CY
      000000C0H.0 SFRSYM    DATA     BIT       SI
      000000E1H   SFRSYM    DATA     BYTE      XBR0
      000000C1H   SFRSYM    DATA     BYTE      SMB0CF
      000000E2H   SFRSYM    DATA     BYTE      XBR1
      000000AFH   SFRSYM    DATA     BYTE      PFE0CN
      000000AAH   SFRSYM    DATA     BYTE      EMI0CN
      000000E3H   SFRSYM    DATA     BYTE      XBR2
      000000D1H   SFRSYM    DATA     BYTE      REF0CN
      000000C9H   SFRSYM    DATA     BYTE      REG0CN
      000000E8H.5 SFRSYM    DATA     BIT       AD0INT
      00000081H   SFRSYM    DATA     BYTE      SP
      00000084H   SFRSYM    DATA     BYTE      EMI0TC
      000000D0H.2 SFRSYM    DATA     BIT       OV
      000000C0H   SFRSYM    DATA     BYTE      SMB0CN
      000000F8H.5 SFRSYM    DATA     BIT       MODF
      000000ACH   SFRSYM    DATA     BYTE      SBCON1
      00000098H.7 SFRSYM    DATA     BIT       S0MODE
      000000FFH   SFRSYM    DATA     BYTE      VDM0CN
      000000F1H   SFRSYM    DATA     BYTE      P0MDIN
      0000009DH   SFRSYM    DATA     BYTE      CPT0MD
LX51 LINKER/LOCATER V4.66.97.0                                                        02/13/2020  01:59:39  PAGE 25


      0000009BH   SFRSYM    DATA     BYTE      CPT0CN
      000000F2H   SFRSYM    DATA     BYTE      P1MDIN
      0000009CH   SFRSYM    DATA     BYTE      CPT1MD
      0000009AH   SFRSYM    DATA     BYTE      CPT1CN
      000000F3H   SFRSYM    DATA     BYTE      P2MDIN
      000000C8H.5 SFRSYM    DATA     BIT       TF2LEN
      000000F4H   SFRSYM    DATA     BYTE      P3MDIN
      000000F5H   SFRSYM    DATA     BYTE      P4MDIN
      000000B5H   SFRSYM    DATA     BYTE      SBRLH1
      000000F8H   SFRSYM    DATA     BYTE      SPI0CN
      00000087H   SFRSYM    DATA     BYTE      PCON
      000000B4H   SFRSYM    DATA     BYTE      SBRLL1
      000000F8H.7 SFRSYM    DATA     BIT       SPIF
      00000089H   SFRSYM    DATA     BYTE      TMOD
      00000088H   SFRSYM    DATA     BYTE      TCON
      000000F8H.6 SFRSYM    DATA     BIT       WCOL
      000000F8H.2 SFRSYM    DATA     BIT       NSSMD0
      000000F8H.3 SFRSYM    DATA     BIT       NSSMD1
      000000C8H   SFRSYM    DATA     BYTE      TMR2CN
      000000D4H   SFRSYM    DATA     BYTE      P0SKIP
      00000091H   SFRSYM    DATA     BYTE      TMR3CN
      000000C8H.0 SFRSYM    DATA     BIT       T2XCLK
      000000D5H   SFRSYM    DATA     BYTE      P1SKIP
      000000D6H   SFRSYM    DATA     BYTE      P2SKIP
      000000DFH   SFRSYM    DATA     BYTE      P3SKIP
      00000088H.1 SFRSYM    DATA     BIT       IE0
      0000009FH   SFRSYM    DATA     BYTE      CPT0MX
      00000088H.3 SFRSYM    DATA     BIT       IE1
      000000B3H   SFRSYM    DATA     BYTE      OSCICL
      0000009EH   SFRSYM    DATA     BYTE      CPT1MX
      000000A9H   SFRSYM    DATA     BYTE      CLKSEL
      000000F0H   SFRSYM    DATA     BYTE      B
      000000BEH   SFRSYM    DATA     BYTE      ADC0H
      000000B2H   SFRSYM    DATA     BYTE      OSCICN
      00000086H   SFRSYM    DATA     BYTE      OSCLCN
      000000BDH   SFRSYM    DATA     BYTE      ADC0L
      000000E0H   SFRSYM    DATA     BYTE      ACC
      000000A8H.4 SFRSYM    DATA     BIT       ES0
      000000E8H.7 SFRSYM    DATA     BIT       AD0EN
      000000A8H.1 SFRSYM    DATA     BIT       ET0
      000000A8H.3 SFRSYM    DATA     BIT       ET1
      00000088H.5 SFRSYM    DATA     BIT       TF0
      000000B9H   SFRSYM    DATA     BYTE      CLKMUL
      000000A8H.5 SFRSYM    DATA     BIT       ET2
      00000098H.0 SFRSYM    DATA     BIT       RI0
      00000088H.7 SFRSYM    DATA     BIT       TF1
      0000008CH   SFRSYM    DATA     BYTE      TH0
      000000A8H.0 SFRSYM    DATA     BIT       EX0
      00000098H.1 SFRSYM    DATA     BIT       TI0
      00000088H.0 SFRSYM    DATA     BIT       IT0
      000000FAH   SFRSYM    DATA     BYTE      PCA0H
      0000008DH   SFRSYM    DATA     BYTE      TH1
      000000C0H.7 SFRSYM    DATA     BIT       MASTER
      000000A8H.2 SFRSYM    DATA     BIT       EX1
      00000088H.2 SFRSYM    DATA     BIT       IT1
      000000D0H.0 SFRSYM    DATA     BIT       P
      000000C0H.1 SFRSYM    DATA     BIT       ACK
      000000B1H   SFRSYM    DATA     BYTE      OSCXCN
      0000008AH   SFRSYM    DATA     BYTE      TL0
      000000F9H   SFRSYM    DATA     BYTE      PCA0L
      0000008BH   SFRSYM    DATA     BYTE      TL1
      000000C0H.6 SFRSYM    DATA     BIT       TXMODE
LX51 LINKER/LOCATER V4.66.97.0                                                        02/13/2020  01:59:39  PAGE 26


      000000B8H.4 SFRSYM    DATA     BIT       PS0
      000000B8H.1 SFRSYM    DATA     BIT       PT0
      000000D0H.3 SFRSYM    DATA     BIT       RS0
      000000B8H.3 SFRSYM    DATA     BIT       PT1
      000000D0H.4 SFRSYM    DATA     BIT       RS1
      000000B8H.5 SFRSYM    DATA     BIT       PT2
      00000088H.4 SFRSYM    DATA     BIT       TR0
      000000E8H.6 SFRSYM    DATA     BIT       AD0TM
      00000088H.6 SFRSYM    DATA     BIT       TR1
      000000C8H.2 SFRSYM    DATA     BIT       TR2
      000000B8H.0 SFRSYM    DATA     BIT       PX0
      000000B8H.2 SFRSYM    DATA     BIT       PX1
      00000083H   SFRSYM    DATA     BYTE      DPH
      000000C4H   SFRSYM    DATA     BYTE      ADC0GTH
      00000082H   SFRSYM    DATA     BYTE      DPL
      000000C3H   SFRSYM    DATA     BYTE      ADC0GTL
      00000099H   SFRSYM    DATA     BYTE      SBUF0
      000000A8H.6 SFRSYM    DATA     BIT       ESPI0
      000000D3H   SFRSYM    DATA     BYTE      SBUF1
      000000C6H   SFRSYM    DATA     BYTE      ADC0LTH
      000000EFH   SFRSYM    DATA     BYTE      RSTSRC
      00000098H   SFRSYM    DATA     BYTE      SCON0
      000000E5H   SFRSYM    DATA     BYTE      SMOD1
      000000D2H   SFRSYM    DATA     BYTE      SCON1
      000000BAH   SFRSYM    DATA     BYTE      AMX0N
      000000C5H   SFRSYM    DATA     BYTE      ADC0LTL
      000000BBH   SFRSYM    DATA     BYTE      AMX0P
      000000C0H.5 SFRSYM    DATA     BIT       STA
      000000B8H.6 SFRSYM    DATA     BIT       PSPI0
      000000C2H   SFRSYM    DATA     BYTE      SMB0DAT
      000000CDH   SFRSYM    DATA     BYTE      TMR2H
      000000A1H   SFRSYM    DATA     BYTE      SPI0CFG
      000000C8H.4 SFRSYM    DATA     BIT       T2SOF
      00000095H   SFRSYM    DATA     BYTE      TMR3H
      0000008EH   SFRSYM    DATA     BYTE      CKCON
      000000F8H.4 SFRSYM    DATA     BIT       RXOVRN
      000000CCH   SFRSYM    DATA     BYTE      TMR2L
      000000C0H.3 SFRSYM    DATA     BIT       ACKRQ
      00000096H   SFRSYM    DATA     BYTE      USB0ADR
      00000094H   SFRSYM    DATA     BYTE      TMR3L
      000000D0H.5 SFRSYM    DATA     BIT       F0
      000000B6H   SFRSYM    DATA     BYTE      FLSCL
      00000097H   SFRSYM    DATA     BYTE      USB0DAT
      000000E8H.0 SFRSYM    DATA     BIT       AD0CM0
      000000D0H.1 SFRSYM    DATA     BIT       F1
      000000C0H.4 SFRSYM    DATA     BIT       STO
      000000E8H.1 SFRSYM    DATA     BIT       AD0CM1
      000000A3H   SFRSYM    DATA     BYTE      SPI0DAT
      000000E8H.2 SFRSYM    DATA     BIT       AD0CM2
      000000E8H.3 SFRSYM    DATA     BIT       AD0WINT
      000000E8H.4 SFRSYM    DATA     BIT       AD0BUSY
      000000D0H   SFRSYM    DATA     BYTE      PSW
      000000D8H.0 SFRSYM    DATA     BIT       CCF0
      00000098H.2 SFRSYM    DATA     BIT       RB80
      000000B7H   SFRSYM    DATA     BYTE      FLKEY
      000000D8H.1 SFRSYM    DATA     BIT       CCF1

      01000824H   BLOCK     CODE     ---       LVL=0
      00000029H   SYMBOL    DATA     DWORD     u32BaudRate
      0100082CH   BLOCK     CODE     NEAR LAB  LVL=1
      0000002DH   SYMBOL    DATA     BYTE      enStatus
      00000007H   SYMBOL    DATA     BYTE      enStatusTim
LX51 LINKER/LOCATER V4.66.97.0                                                        02/13/2020  01:59:39  PAGE 27


      ---         BLOCKEND  ---      ---       LVL=1
      01000824H   LINE      CODE     ---       #22
      0100082CH   LINE      CODE     ---       #23
      0100082CH   LINE      CODE     ---       #24
      0100082FH   LINE      CODE     ---       #25
      0100082FH   LINE      CODE     ---       #32
      01000832H   LINE      CODE     ---       #35
      01000835H   LINE      CODE     ---       #36
      01000838H   LINE      CODE     ---       #39
      0100083BH   LINE      CODE     ---       #42
      0100083EH   LINE      CODE     ---       #46
      01000841H   LINE      CODE     ---       #49
      01000844H   LINE      CODE     ---       #51
      0100084FH   LINE      CODE     ---       #52
      01000854H   LINE      CODE     ---       #53
      01000857H   LINE      CODE     ---       #60
      0100085AH   LINE      CODE     ---       #61
      0100085DH   LINE      CODE     ---       #63
      0100085FH   LINE      CODE     ---       #64
      ---         BLOCKEND  ---      ---       LVL=0

      0100094CH   BLOCK     CODE     ---       LVL=0
      00000007H   SYMBOL    DATA     BYTE      u8Value
      0100094CH   LINE      CODE     ---       #66
      0100094CH   LINE      CODE     ---       #67
      0100094CH   LINE      CODE     ---       #68
      0100094EH   LINE      CODE     ---       #69
      01000954H   LINE      CODE     ---       #70
      01000957H   LINE      CODE     ---       #71
      ---         BLOCKEND  ---      ---       LVL=0

      01000370H   BLOCK     CODE     ---       LVL=0
      0000002EH   SYMBOL    DATA     DWORD     u32BaudRate
      01000378H   BLOCK     CODE     NEAR LAB  LVL=1
      00000032H   SYMBOL    DATA     FLOAT     fCont
      00000036H   SYMBOL    DATA     BYTE      u8Cont
      00000037H   SYMBOL    DATA     FLOAT     fCont24
      0000003BH   SYMBOL    DATA     BYTE      u8Cont24
      0000003CH   SYMBOL    DATA     FLOAT     fError
      00000040H   SYMBOL    DATA     FLOAT     fError24
      00000044H   SYMBOL    DATA     BYTE      u8Value
      ---         BLOCKEND  ---      ---       LVL=1
      01000370H   LINE      CODE     ---       #73
      01000378H   LINE      CODE     ---       #74
      01000378H   LINE      CODE     ---       #75
      01000384H   LINE      CODE     ---       #76
      01000387H   LINE      CODE     ---       #77
      01000392H   LINE      CODE     ---       #78
      01000394H   LINE      CODE     ---       #79
      0100039CH   LINE      CODE     ---       #80
      010003A4H   LINE      CODE     ---       #82
      010003A6H   LINE      CODE     ---       #84
      010003BBH   LINE      CODE     ---       #85
      010003BBH   LINE      CODE     ---       #86
      010003F2H   LINE      CODE     ---       #87
      01000403H   LINE      CODE     ---       #88
      01000408H   LINE      CODE     ---       #89
      0100040EH   LINE      CODE     ---       #90
      0100040EH   LINE      CODE     ---       #91
      01000411H   LINE      CODE     ---       #92
      0100042AH   LINE      CODE     ---       #93
      0100042AH   LINE      CODE     ---       #94
LX51 LINKER/LOCATER V4.66.97.0                                                        02/13/2020  01:59:39  PAGE 28


      01000461H   LINE      CODE     ---       #95
      01000466H   LINE      CODE     ---       #96
      01000487H   LINE      CODE     ---       #98
      010004BEH   LINE      CODE     ---       #99
      010004C3H   LINE      CODE     ---       #100
      010004E4H   LINE      CODE     ---       #102
      010004F1H   LINE      CODE     ---       #103
      010004F1H   LINE      CODE     ---       #104
      0100050AH   LINE      CODE     ---       #105
      0100050FH   LINE      CODE     ---       #106
      01000512H   LINE      CODE     ---       #107
      01000514H   LINE      CODE     ---       #109
      01000514H   LINE      CODE     ---       #110
      0100051CH   LINE      CODE     ---       #111
      0100051CH   LINE      CODE     ---       #113
      0100051CH   LINE      CODE     ---       #114
      0100051CH   LINE      CODE     ---       #117
      0100051EH   LINE      CODE     ---       #118
      01000534H   LINE      CODE     ---       #119
      01000534H   LINE      CODE     ---       #120
      0100056BH   LINE      CODE     ---       #121
      0100057CH   LINE      CODE     ---       #122
      01000581H   LINE      CODE     ---       #123
      01000584H   LINE      CODE     ---       #124
      01000586H   LINE      CODE     ---       #125
      01000589H   LINE      CODE     ---       #128
      0100058FH   LINE      CODE     ---       #130
      01000592H   LINE      CODE     ---       #131
      01000595H   LINE      CODE     ---       #133
      01000598H   LINE      CODE     ---       #134
      0100059BH   LINE      CODE     ---       #135
      0100059EH   LINE      CODE     ---       #136
      010005A1H   LINE      CODE     ---       #139
      010005A4H   LINE      CODE     ---       #140
      010005A7H   LINE      CODE     ---       #142
      010005AAH   LINE      CODE     ---       #144
      010005ABH   LINE      CODE     ---       #145
      ---         BLOCKEND  ---      ---       LVL=0

      ---         MODULE    ---      ---       MAIN
      00000056H   PUBLIC    DATA     ---       display
      0000004CH   PUBLIC    DATA     ---       codificacion
      0000004BH   PUBLIC    DATA     BYTE      Timer0_OF
      0000004AH   PUBLIC    DATA     BYTE      Timer0_Count
      00000049H   PUBLIC    DATA     BYTE      Timer0Refresh
      00000045H   PUBLIC    DATA     ---       comunes
      01000860H   PUBLIC    CODE     ---       TIMER0_ISR
      010008EDH   PUBLIC    CODE     ---       TIMER0_vInit
      010005ACH   PUBLIC    CODE     ---       main
      000000D8H.2 SFRSYM    DATA     BIT       CCF2
      00000098H.3 SFRSYM    DATA     BIT       TB80
      000000A2H   SFRSYM    DATA     BYTE      SPI0CKR
      000000D8H.3 SFRSYM    DATA     BIT       CCF3
      00000080H   SFRSYM    DATA     BYTE      P0
      000000F8H.0 SFRSYM    DATA     BIT       SPIEN
      000000D8H.4 SFRSYM    DATA     BIT       CCF4
      00000090H   SFRSYM    DATA     BYTE      P1
      000000A0H   SFRSYM    DATA     BYTE      P2
      000000BCH   SFRSYM    DATA     BYTE      ADC0CF
      000000B0H   SFRSYM    DATA     BYTE      P3
      000000D0H.6 SFRSYM    DATA     BIT       AC
      000000C7H   SFRSYM    DATA     BYTE      P4
LX51 LINKER/LOCATER V4.66.97.0                                                        02/13/2020  01:59:39  PAGE 29


      000000E6H   SFRSYM    DATA     BYTE      EIE1
      000000A8H.7 SFRSYM    DATA     BIT       EA
      00000098H.5 SFRSYM    DATA     BIT       MCE0
      000000E7H   SFRSYM    DATA     BYTE      EIE2
      000000D7H   SFRSYM    DATA     BYTE      USB0XCN
      000000A0H.2 SFRSYM    DATA     BIT       LED1
      000000A0H.3 SFRSYM    DATA     BIT       LED2
      0000008FH   SFRSYM    DATA     BYTE      PSCTL
      000000D8H.7 SFRSYM    DATA     BIT       CF
      000000E4H   SFRSYM    DATA     BYTE      IT01CF
      000000E8H   SFRSYM    DATA     BYTE      ADC0CN
      000000A4H   SFRSYM    DATA     BYTE      P0MDOUT
      000000A5H   SFRSYM    DATA     BYTE      P1MDOUT
      000000CBH   SFRSYM    DATA     BYTE      TMR2RLH
      000000A8H   SFRSYM    DATA     BYTE      IE
      000000A6H   SFRSYM    DATA     BYTE      P2MDOUT
      000000A7H   SFRSYM    DATA     BYTE      P3MDOUT
      00000093H   SFRSYM    DATA     BYTE      TMR3RLH
      000000F6H   SFRSYM    DATA     BYTE      EIP1
      000000AEH   SFRSYM    DATA     BYTE      P4MDOUT
      000000F8H.1 SFRSYM    DATA     BIT       TXBMT
      000000F7H   SFRSYM    DATA     BYTE      EIP2
      000000FCH   SFRSYM    DATA     BYTE      PCA0CPH0
      000000CAH   SFRSYM    DATA     BYTE      TMR2RLL
      000000EAH   SFRSYM    DATA     BYTE      PCA0CPH1
      00000092H   SFRSYM    DATA     BYTE      TMR3RLL
      000000ECH   SFRSYM    DATA     BYTE      PCA0CPH2
      000000D8H.6 SFRSYM    DATA     BIT       CR
      000000C8H.3 SFRSYM    DATA     BIT       T2SPLIT
      000000C8H.7 SFRSYM    DATA     BIT       TF2H
      000000EEH   SFRSYM    DATA     BYTE      PCA0CPH3
      00000098H.4 SFRSYM    DATA     BIT       REN0
      000000FEH   SFRSYM    DATA     BYTE      PCA0CPH4
      000000FBH   SFRSYM    DATA     BYTE      PCA0CPL0
      00000085H   SFRSYM    DATA     BYTE      EMI0CF
      000000E9H   SFRSYM    DATA     BYTE      PCA0CPL1
      000000DAH   SFRSYM    DATA     BYTE      PCA0CPM0
      000000D9H   SFRSYM    DATA     BYTE      PCA0MD
      000000D8H   SFRSYM    DATA     BYTE      PCA0CN
      000000EBH   SFRSYM    DATA     BYTE      PCA0CPL2
      000000DBH   SFRSYM    DATA     BYTE      PCA0CPM1
      000000C8H.6 SFRSYM    DATA     BIT       TF2L
      000000EDH   SFRSYM    DATA     BYTE      PCA0CPL3
      000000DCH   SFRSYM    DATA     BYTE      PCA0CPM2
      000000B8H   SFRSYM    DATA     BYTE      IP
      000000C0H.2 SFRSYM    DATA     BIT       ARBLOST
      000000FDH   SFRSYM    DATA     BYTE      PCA0CPL4
      000000DDH   SFRSYM    DATA     BYTE      PCA0CPM3
      000000DEH   SFRSYM    DATA     BYTE      PCA0CPM4
      000000D0H.7 SFRSYM    DATA     BIT       CY
      000000C0H.0 SFRSYM    DATA     BIT       SI
      000000E1H   SFRSYM    DATA     BYTE      XBR0
      000000C1H   SFRSYM    DATA     BYTE      SMB0CF
      000000E2H   SFRSYM    DATA     BYTE      XBR1
      000000AFH   SFRSYM    DATA     BYTE      PFE0CN
      000000AAH   SFRSYM    DATA     BYTE      EMI0CN
      000000E3H   SFRSYM    DATA     BYTE      XBR2
      000000D1H   SFRSYM    DATA     BYTE      REF0CN
      000000C9H   SFRSYM    DATA     BYTE      REG0CN
      000000E8H.5 SFRSYM    DATA     BIT       AD0INT
      00000081H   SFRSYM    DATA     BYTE      SP
      00000084H   SFRSYM    DATA     BYTE      EMI0TC
LX51 LINKER/LOCATER V4.66.97.0                                                        02/13/2020  01:59:39  PAGE 30


      000000D0H.2 SFRSYM    DATA     BIT       OV
      000000C0H   SFRSYM    DATA     BYTE      SMB0CN
      000000F8H.5 SFRSYM    DATA     BIT       MODF
      000000ACH   SFRSYM    DATA     BYTE      SBCON1
      00000098H.7 SFRSYM    DATA     BIT       S0MODE
      000000FFH   SFRSYM    DATA     BYTE      VDM0CN
      000000F1H   SFRSYM    DATA     BYTE      P0MDIN
      0000009DH   SFRSYM    DATA     BYTE      CPT0MD
      0000009BH   SFRSYM    DATA     BYTE      CPT0CN
      000000F2H   SFRSYM    DATA     BYTE      P1MDIN
      0000009CH   SFRSYM    DATA     BYTE      CPT1MD
      0000009AH   SFRSYM    DATA     BYTE      CPT1CN
      000000F3H   SFRSYM    DATA     BYTE      P2MDIN
      000000C8H.5 SFRSYM    DATA     BIT       TF2LEN
      000000F4H   SFRSYM    DATA     BYTE      P3MDIN
      000000F5H   SFRSYM    DATA     BYTE      P4MDIN
      000000B5H   SFRSYM    DATA     BYTE      SBRLH1
      000000F8H   SFRSYM    DATA     BYTE      SPI0CN
      00000087H   SFRSYM    DATA     BYTE      PCON
      000000B4H   SFRSYM    DATA     BYTE      SBRLL1
      000000F8H.7 SFRSYM    DATA     BIT       SPIF
      00000089H   SFRSYM    DATA     BYTE      TMOD
      00000088H   SFRSYM    DATA     BYTE      TCON
      000000F8H.6 SFRSYM    DATA     BIT       WCOL
      000000F8H.2 SFRSYM    DATA     BIT       NSSMD0
      000000F8H.3 SFRSYM    DATA     BIT       NSSMD1
      000000C8H   SFRSYM    DATA     BYTE      TMR2CN
      000000D4H   SFRSYM    DATA     BYTE      P0SKIP
      00000091H   SFRSYM    DATA     BYTE      TMR3CN
      000000C8H.0 SFRSYM    DATA     BIT       T2XCLK
      000000D5H   SFRSYM    DATA     BYTE      P1SKIP
      000000D6H   SFRSYM    DATA     BYTE      P2SKIP
      000000DFH   SFRSYM    DATA     BYTE      P3SKIP
      00000088H.1 SFRSYM    DATA     BIT       IE0
      0000009FH   SFRSYM    DATA     BYTE      CPT0MX
      00000088H.3 SFRSYM    DATA     BIT       IE1
      000000B3H   SFRSYM    DATA     BYTE      OSCICL
      0000009EH   SFRSYM    DATA     BYTE      CPT1MX
      000000A9H   SFRSYM    DATA     BYTE      CLKSEL
      000000F0H   SFRSYM    DATA     BYTE      B
      000000BEH   SFRSYM    DATA     BYTE      ADC0H
      000000B2H   SFRSYM    DATA     BYTE      OSCICN
      00000086H   SFRSYM    DATA     BYTE      OSCLCN
      000000BDH   SFRSYM    DATA     BYTE      ADC0L
      000000E0H   SFRSYM    DATA     BYTE      ACC
      000000A8H.4 SFRSYM    DATA     BIT       ES0
      000000E8H.7 SFRSYM    DATA     BIT       AD0EN
      000000A8H.1 SFRSYM    DATA     BIT       ET0
      000000A8H.3 SFRSYM    DATA     BIT       ET1
      00000088H.5 SFRSYM    DATA     BIT       TF0
      000000B9H   SFRSYM    DATA     BYTE      CLKMUL
      000000A8H.5 SFRSYM    DATA     BIT       ET2
      00000098H.0 SFRSYM    DATA     BIT       RI0
      00000088H.7 SFRSYM    DATA     BIT       TF1
      0000008CH   SFRSYM    DATA     BYTE      TH0
      000000A8H.0 SFRSYM    DATA     BIT       EX0
      00000098H.1 SFRSYM    DATA     BIT       TI0
      00000088H.0 SFRSYM    DATA     BIT       IT0
      000000FAH   SFRSYM    DATA     BYTE      PCA0H
      0000008DH   SFRSYM    DATA     BYTE      TH1
      000000C0H.7 SFRSYM    DATA     BIT       MASTER
      000000A8H.2 SFRSYM    DATA     BIT       EX1
LX51 LINKER/LOCATER V4.66.97.0                                                        02/13/2020  01:59:39  PAGE 31


      00000088H.2 SFRSYM    DATA     BIT       IT1
      000000D0H.0 SFRSYM    DATA     BIT       P
      000000C0H.1 SFRSYM    DATA     BIT       ACK
      000000B1H   SFRSYM    DATA     BYTE      OSCXCN
      0000008AH   SFRSYM    DATA     BYTE      TL0
      000000F9H   SFRSYM    DATA     BYTE      PCA0L
      0000008BH   SFRSYM    DATA     BYTE      TL1
      000000C0H.6 SFRSYM    DATA     BIT       TXMODE
      000000B8H.4 SFRSYM    DATA     BIT       PS0
      000000B8H.1 SFRSYM    DATA     BIT       PT0
      000000D0H.3 SFRSYM    DATA     BIT       RS0
      000000B8H.3 SFRSYM    DATA     BIT       PT1
      000000D0H.4 SFRSYM    DATA     BIT       RS1
      000000B8H.5 SFRSYM    DATA     BIT       PT2
      00000088H.4 SFRSYM    DATA     BIT       TR0
      000000E8H.6 SFRSYM    DATA     BIT       AD0TM
      00000088H.6 SFRSYM    DATA     BIT       TR1
      000000C8H.2 SFRSYM    DATA     BIT       TR2
      000000B8H.0 SFRSYM    DATA     BIT       PX0
      000000B8H.2 SFRSYM    DATA     BIT       PX1
      00000083H   SFRSYM    DATA     BYTE      DPH
      000000C4H   SFRSYM    DATA     BYTE      ADC0GTH
      00000082H   SFRSYM    DATA     BYTE      DPL
      000000C3H   SFRSYM    DATA     BYTE      ADC0GTL
      00000099H   SFRSYM    DATA     BYTE      SBUF0
      000000A8H.6 SFRSYM    DATA     BIT       ESPI0
      000000D3H   SFRSYM    DATA     BYTE      SBUF1
      000000C6H   SFRSYM    DATA     BYTE      ADC0LTH
      000000EFH   SFRSYM    DATA     BYTE      RSTSRC
      00000098H   SFRSYM    DATA     BYTE      SCON0
      000000E5H   SFRSYM    DATA     BYTE      SMOD1
      000000D2H   SFRSYM    DATA     BYTE      SCON1
      000000BAH   SFRSYM    DATA     BYTE      AMX0N
      000000C5H   SFRSYM    DATA     BYTE      ADC0LTL
      000000BBH   SFRSYM    DATA     BYTE      AMX0P
      000000C0H.5 SFRSYM    DATA     BIT       STA
      000000B8H.6 SFRSYM    DATA     BIT       PSPI0
      000000C2H   SFRSYM    DATA     BYTE      SMB0DAT
      000000CDH   SFRSYM    DATA     BYTE      TMR2H
      000000A1H   SFRSYM    DATA     BYTE      SPI0CFG
      000000C8H.4 SFRSYM    DATA     BIT       T2SOF
      00000095H   SFRSYM    DATA     BYTE      TMR3H
      0000008EH   SFRSYM    DATA     BYTE      CKCON
      000000F8H.4 SFRSYM    DATA     BIT       RXOVRN
      000000CCH   SFRSYM    DATA     BYTE      TMR2L
      000000C0H.3 SFRSYM    DATA     BIT       ACKRQ
      00000096H   SFRSYM    DATA     BYTE      USB0ADR
      00000094H   SFRSYM    DATA     BYTE      TMR3L
      000000D0H.5 SFRSYM    DATA     BIT       F0
      000000B6H   SFRSYM    DATA     BYTE      FLSCL
      00000097H   SFRSYM    DATA     BYTE      USB0DAT
      000000E8H.0 SFRSYM    DATA     BIT       AD0CM0
      000000D0H.1 SFRSYM    DATA     BIT       F1
      000000C0H.4 SFRSYM    DATA     BIT       STO
      000000E8H.1 SFRSYM    DATA     BIT       AD0CM1
      000000A3H   SFRSYM    DATA     BYTE      SPI0DAT
      000000E8H.2 SFRSYM    DATA     BIT       AD0CM2
      000000E8H.3 SFRSYM    DATA     BIT       AD0WINT
      000000E8H.4 SFRSYM    DATA     BIT       AD0BUSY
      000000D0H   SFRSYM    DATA     BYTE      PSW
      000000D8H.0 SFRSYM    DATA     BIT       CCF0
      00000098H.2 SFRSYM    DATA     BIT       RB80
LX51 LINKER/LOCATER V4.66.97.0                                                        02/13/2020  01:59:39  PAGE 32


      000000B7H   SFRSYM    DATA     BYTE      FLKEY
      000000D8H.1 SFRSYM    DATA     BIT       CCF1

      010005ACH   BLOCK     CODE     ---       LVL=0
      010005ACH   BLOCK     CODE     NEAR LAB  LVL=1
      00000022H   SYMBOL    DATA     WORD      ADCnumber
      00000024H   SYMBOL    DATA     WORD      mean
      00000026H   SYMBOL    DATA     WORD      value
      00000028H   SYMBOL    DATA     BYTE      cont
      ---         BLOCKEND  ---      ---       LVL=1
      010005ACH   LINE      CODE     ---       #83
      010005ACH   LINE      CODE     ---       #84
      010005ACH   LINE      CODE     ---       #85
      010005B1H   LINE      CODE     ---       #86
      010005B5H   LINE      CODE     ---       #87
      010005B9H   LINE      CODE     ---       #88
      010005BBH   LINE      CODE     ---       #90
      010005BEH   LINE      CODE     ---       #91
      010005C1H   LINE      CODE     ---       #92
      010005C4H   LINE      CODE     ---       #95
      010005C9H   LINE      CODE     ---       #96
      010005D4H   LINE      CODE     ---       #97
      010005D7H   LINE      CODE     ---       #98
      010005DAH   LINE      CODE     ---       #99
      010005DDH   LINE      CODE     ---       #101
      010005DFH   LINE      CODE     ---       #102
      010005DFH   LINE      CODE     ---       #103
      010005DFH   LINE      CODE     ---       #104
      010005E6H   LINE      CODE     ---       #105
      010005F2H   LINE      CODE     ---       #106
      01000600H   LINE      CODE     ---       #107
      01000600H   LINE      CODE     ---       #108
      01000611H   LINE      CODE     ---       #109
      01000616H   LINE      CODE     ---       #110
      01000622H   LINE      CODE     ---       #111
      01000631H   LINE      CODE     ---       #112
      0100063CH   LINE      CODE     ---       #113
      0100064BH   LINE      CODE     ---       #114
      01000656H   LINE      CODE     ---       #115
      01000665H   LINE      CODE     ---       #116
      01000670H   LINE      CODE     ---       #117
      01000675H   LINE      CODE     ---       #118
      01000677H   LINE      CODE     ---       #119
      0100067EH   LINE      CODE     ---       #120
      0100067EH   LINE      CODE     ---       #121
      01000680H   LINE      CODE     ---       #122
      01000685H   LINE      CODE     ---       #123
      0100068AH   LINE      CODE     ---       #124
      0100068FH   LINE      CODE     ---       #125
      01000694H   LINE      CODE     ---       #126
      01000699H   LINE      CODE     ---       #127
      0100069EH   LINE      CODE     ---       #128
      010006A0H   LINE      CODE     ---       #129
      010006A0H   LINE      CODE     ---       #130
      010006A2H   LINE      CODE     ---       #132
      010006A2H   LINE      CODE     ---       #133
      010006A4H   LINE      CODE     ---       #134
      010006A9H   LINE      CODE     ---       #135
      010006AEH   LINE      CODE     ---       #136
      010006B3H   LINE      CODE     ---       #137
      010006B8H   LINE      CODE     ---       #138
      010006BDH   LINE      CODE     ---       #139
LX51 LINKER/LOCATER V4.66.97.0                                                        02/13/2020  01:59:39  PAGE 33


      010006C2H   LINE      CODE     ---       #140
      010006C7H   LINE      CODE     ---       #141
      010006CCH   LINE      CODE     ---       #142
      010006CCH   LINE      CODE     ---       #144
      010006D4H   LINE      CODE     ---       #145
      010006DCH   LINE      CODE     ---       #146
      010006E4H   LINE      CODE     ---       #147
      010006ECH   LINE      CODE     ---       #148
      010006F1H   LINE      CODE     ---       #149
      010006F6H   LINE      CODE     ---       #150
      010006F6H   LINE      CODE     ---       #152
      010006F8H   LINE      CODE     ---       #155
      ---         BLOCKEND  ---      ---       LVL=0

      010008EDH   BLOCK     CODE     ---       LVL=0
      010008EDH   LINE      CODE     ---       #160
      010008EDH   LINE      CODE     ---       #161
      010008EDH   LINE      CODE     ---       #162
      010008F0H   LINE      CODE     ---       #163
      010008F3H   LINE      CODE     ---       #164
      010008F6H   LINE      CODE     ---       #166
      010008F9H   LINE      CODE     ---       #167
      010008FCH   LINE      CODE     ---       #168
      010008FFH   LINE      CODE     ---       #169
      01000902H   LINE      CODE     ---       #170
      01000905H   LINE      CODE     ---       #171
      01000908H   LINE      CODE     ---       #172
      0100090BH   LINE      CODE     ---       #173
      0100090DH   LINE      CODE     ---       #174
      01000910H   LINE      CODE     ---       #175
      ---         BLOCKEND  ---      ---       LVL=0

      01000860H   BLOCK     CODE     ---       LVL=0
      01000860H   LINE      CODE     ---       #179
      01000869H   LINE      CODE     ---       #182
      0100086CH   LINE      CODE     ---       #183
      0100086EH   LINE      CODE     ---       #184
      01000871H   LINE      CODE     ---       #185
      01000874H   LINE      CODE     ---       #186
      01000883H   LINE      CODE     ---       #187
      0100088BH   LINE      CODE     ---       #190
      ---         BLOCKEND  ---      ---       LVL=0

      ---         MODULE    ---      ---       ?C?FPADD
      0100001DH   PUBLIC    CODE     ---       ?C?FPADD
      01000019H   PUBLIC    CODE     ---       ?C?FPSUB

      ---         MODULE    ---      ---       ?C?FPDIV
      01000111H   PUBLIC    CODE     ---       ?C?FPDIV

      ---         MODULE    ---      ---       ?C?FPCMP
      010001B0H   PUBLIC    CODE     ---       ?C?FPCMP
      010001AEH   PUBLIC    CODE     ---       ?C?FPCMP3

      ---         MODULE    ---      ---       ?C?FCAST
      01000231H   PUBLIC    CODE     ---       ?C?FCASTC
      0100022CH   PUBLIC    CODE     ---       ?C?FCASTI
      01000227H   PUBLIC    CODE     ---       ?C?FCASTL

      ---         MODULE    ---      ---       ?C?CASTF
      01000265H   PUBLIC    CODE     ---       ?C?CASTF

LX51 LINKER/LOCATER V4.66.97.0                                                        02/13/2020  01:59:39  PAGE 34


      ---         MODULE    ---      ---       ?C?FPGETOPN
      0100029CH   PUBLIC    CODE     ---       ?C?FPGETOPN2
      010002D1H   PUBLIC    CODE     ---       ?C?FPNANRESULT
      010002DBH   PUBLIC    CODE     ---       ?C?FPOVERFLOW
      010002B3H   PUBLIC    CODE     ---       ?C?FPRESULT
      010002C7H   PUBLIC    CODE     ---       ?C?FPRESULT2
      010002D8H   PUBLIC    CODE     ---       ?C?FPUNDERFLOW

      ---         MODULE    ---      ---       ?C_STARTUP
      01000000H   PUBLIC    CODE     ---       ?C_STARTUP

      ---         MODULE    ---      ---       ?C?UIDIV
      010002E6H   PUBLIC    CODE     ---       ?C?UIDIV

      ---         MODULE    ---      ---       ?C?LNEG
      0100033BH   PUBLIC    CODE     ---       ?C?LNEG

      ---         MODULE    ---      ---       ?C?SLCMP
      01000349H   PUBLIC    CODE     ---       ?C?SLCMP

      ---         MODULE    ---      ---       ?C?ULCMP
      0100035FH   PUBLIC    CODE     ---       ?C?ULCMP

      ---         MODULE    ---      ---       ?C_INIT
      01000742H   PUBLIC    CODE     ---       ?C_START

Program Size: data=86.0 xdata=8 const=0 code=2398
LX51 RUN COMPLETE.  0 WARNING(S),  0 ERROR(S)
